TI ARM Assembler PC v18.12.3 Wed Oct 30 15:48:47 2019

Copyright (c) 1996-2018 Texas Instruments Incorporated
main.asm                                                             PAGE    1

       1                    ;******************************************************************************
       2                    ;* TI ARM G3 C/C++ Codegen                                            PC v18.12.3.LTS *
       3                    ;* Date/Time created: Wed Oct 30 15:48:47 2019                                *
       4                    ;******************************************************************************
       5                            .compiler_opts --abi=eabi --arm_vmrs_si_workaround=off --code_state=16 --diag_wrap=off --embed
       6 00000000                   .thumb
       7                    
       8                    $C$DW$CU        .dwtag  DW_TAG_compile_unit
       9                            .dwattr $C$DW$CU, DW_AT_name("../main.c")
      10                            .dwattr $C$DW$CU, DW_AT_producer("TI TI ARM G3 C/C++ Codegen PC v18.12.3.LTS Copyright (c) 199
      11                            .dwattr $C$DW$CU, DW_AT_TI_version(0x01)
      12                            .dwattr $C$DW$CU, DW_AT_comp_dir("C:\Users\armst\workspace_v9_292\C00_Blank\Debug")
      13                    
      14                    $C$DW$1 .dwtag  DW_TAG_subprogram
      15                            .dwattr $C$DW$1, DW_AT_name("SysCtlPeripheralEnable")
      16                            .dwattr $C$DW$1, DW_AT_TI_symbol_name("SysCtlPeripheralEnable")
      17                            .dwattr $C$DW$1, DW_AT_declaration
      18                            .dwattr $C$DW$1, DW_AT_external
      19                            .dwattr $C$DW$1, DW_AT_decl_file("C:/Users/armst/Desktop/TivaWare/driverlib/sysctl.h")
      20                            .dwattr $C$DW$1, DW_AT_decl_line(0x24e)
      21                            .dwattr $C$DW$1, DW_AT_decl_column(0x0d)
      22                    $C$DW$2 .dwtag  DW_TAG_formal_parameter
      23                            .dwattr $C$DW$2, DW_AT_type(*$C$DW$T$25)
      24                    
      25                            .dwendtag $C$DW$1
      26                    
      27                    
      28                    $C$DW$3 .dwtag  DW_TAG_subprogram
      29                            .dwattr $C$DW$3, DW_AT_name("SysCtlPeripheralReady")
      30                            .dwattr $C$DW$3, DW_AT_TI_symbol_name("SysCtlPeripheralReady")
      31                            .dwattr $C$DW$3, DW_AT_type(*$C$DW$T$145)
      32                            .dwattr $C$DW$3, DW_AT_declaration
      33                            .dwattr $C$DW$3, DW_AT_external
      34                            .dwattr $C$DW$3, DW_AT_decl_file("C:/Users/armst/Desktop/TivaWare/driverlib/sysctl.h")
      35                            .dwattr $C$DW$3, DW_AT_decl_line(0x24a)
      36                            .dwattr $C$DW$3, DW_AT_decl_column(0x0d)
      37                    $C$DW$4 .dwtag  DW_TAG_formal_parameter
      38                            .dwattr $C$DW$4, DW_AT_type(*$C$DW$T$25)
      39                    
      40                            .dwendtag $C$DW$3
      41                    
      42                    
      43                    $C$DW$5 .dwtag  DW_TAG_subprogram
      44                            .dwattr $C$DW$5, DW_AT_name("GPIOPinTypeGPIOOutput")
      45                            .dwattr $C$DW$5, DW_AT_TI_symbol_name("GPIOPinTypeGPIOOutput")
      46                            .dwattr $C$DW$5, DW_AT_declaration
      47                            .dwattr $C$DW$5, DW_AT_external
      48                            .dwattr $C$DW$5, DW_AT_decl_file("C:/Users/armst/Desktop/TivaWare/driverlib/gpio.h")
      49                            .dwattr $C$DW$5, DW_AT_decl_line(0xac)
      50                            .dwattr $C$DW$5, DW_AT_decl_column(0x0d)
      51                    $C$DW$6 .dwtag  DW_TAG_formal_parameter
      52                            .dwattr $C$DW$6, DW_AT_type(*$C$DW$T$25)
      53                    
      54                    $C$DW$7 .dwtag  DW_TAG_formal_parameter
      55                            .dwattr $C$DW$7, DW_AT_type(*$C$DW$T$27)
TI ARM Assembler PC v18.12.3 Wed Oct 30 15:48:47 2019

Copyright (c) 1996-2018 Texas Instruments Incorporated
main.asm                                                             PAGE    2

      56                    
      57                            .dwendtag $C$DW$5
      58                    
      59                    
      60                    $C$DW$8 .dwtag  DW_TAG_subprogram
      61                            .dwattr $C$DW$8, DW_AT_name("GPIOPinWrite")
      62                            .dwattr $C$DW$8, DW_AT_TI_symbol_name("GPIOPinWrite")
      63                            .dwattr $C$DW$8, DW_AT_declaration
      64                            .dwattr $C$DW$8, DW_AT_external
      65                            .dwattr $C$DW$8, DW_AT_decl_file("C:/Users/armst/Desktop/TivaWare/driverlib/gpio.h")
      66                            .dwattr $C$DW$8, DW_AT_decl_line(0xa1)
      67                            .dwattr $C$DW$8, DW_AT_decl_column(0x0d)
      68                    $C$DW$9 .dwtag  DW_TAG_formal_parameter
      69                            .dwattr $C$DW$9, DW_AT_type(*$C$DW$T$25)
      70                    
      71                    $C$DW$10        .dwtag  DW_TAG_formal_parameter
      72                            .dwattr $C$DW$10, DW_AT_type(*$C$DW$T$27)
      73                    
      74                    $C$DW$11        .dwtag  DW_TAG_formal_parameter
      75                            .dwattr $C$DW$11, DW_AT_type(*$C$DW$T$27)
      76                    
      77                            .dwendtag $C$DW$8
      78                    
      79                    ;       C:\ti\ccs920\ccs\tools\compiler\ti-cgt-arm_18.12.3.LTS\bin\armopt.exe C:\\Users\\armst\\AppDat
      80 00000000                   .sect   ".text:main"
      81                            .clink
      82                            .thumbfunc main
      83 00000000                   .thumb
      84                            .global main
      85                    
      86                    $C$DW$12        .dwtag  DW_TAG_subprogram
      87                            .dwattr $C$DW$12, DW_AT_name("main")
      88                            .dwattr $C$DW$12, DW_AT_low_pc(main)
      89                            .dwattr $C$DW$12, DW_AT_high_pc(0x00)
      90                            .dwattr $C$DW$12, DW_AT_TI_symbol_name("main")
      91                            .dwattr $C$DW$12, DW_AT_external
      92                            .dwattr $C$DW$12, DW_AT_type(*$C$DW$T$10)
      93                            .dwattr $C$DW$12, DW_AT_TI_begin_file("../main.c")
      94                            .dwattr $C$DW$12, DW_AT_TI_begin_line(0x3d)
      95                            .dwattr $C$DW$12, DW_AT_TI_begin_column(0x01)
      96                            .dwattr $C$DW$12, DW_AT_decl_file("../main.c")
      97                            .dwattr $C$DW$12, DW_AT_decl_line(0x3d)
      98                            .dwattr $C$DW$12, DW_AT_decl_column(0x01)
      99                            .dwattr $C$DW$12, DW_AT_TI_max_frame_size(0x18)
     100                            .dwpsn  file "../main.c",line 62,column 1,is_stmt,address main,isa 1
     101                    
     102                            .dwfde $C$DW$CIE, main
     103                    
     104                    ;*****************************************************************************
     105                    ;* FUNCTION NAME: main                                                       *
     106                    ;*                                                                           *
     107                    ;*   Regs Modified     : A1,A2,A3,A4,V1,V2,V3,V9,SP,LR,SR,D0,D0_hi,D1,D1_hi, *
     108                    ;*                           D2,D2_hi,D3,D3_hi,D4,D4_hi,D5,D5_hi,D6,D6_hi,D7,*
     109                    ;*                           D7_hi,FPEXC,FPSCR                               *
     110                    ;*   Regs Used         : A1,A2,A3,A4,V1,V2,V3,V9,SP,LR,SR,D0,D0_hi,D1,D1_hi, *
TI ARM Assembler PC v18.12.3 Wed Oct 30 15:48:47 2019

Copyright (c) 1996-2018 Texas Instruments Incorporated
main.asm                                                             PAGE    3

     111                    ;*                           D2,D2_hi,D3,D3_hi,D4,D4_hi,D5,D5_hi,D6,D6_hi,D7,*
     112                    ;*                           D7_hi,FPEXC,FPSCR                               *
     113                    ;*   Local Frame Size  : 0 Args + 4 Auto + 16 Save = 20 byte                 *
     114                    ;*****************************************************************************
     115                    main:
     116                    ;* --------------------------------------------------------------------------*
     117                    $C$DW$13        .dwtag  DW_TAG_variable
     118                            .dwattr $C$DW$13, DW_AT_name("ui32Loop")
     119                            .dwattr $C$DW$13, DW_AT_TI_symbol_name("ui32Loop")
     120                            .dwattr $C$DW$13, DW_AT_type(*$C$DW$T$112)
     121                            .dwattr $C$DW$13, DW_AT_location[DW_OP_breg13 0]
     122                    
     123                            .dwcfi  cfa_offset, 0
     124 00000000 B57C              PUSH      {A3, A4, V1, V2, V3, LR} ; [DPU_V7M3_PIPE]  ; [ORIG 16-BIT INS]
     125                            .dwcfi  cfa_offset, 24
     126                            .dwcfi  save_reg_to_mem, 14, -4
     127                            .dwcfi  save_reg_to_mem, 6, -8
     128                            .dwcfi  save_reg_to_mem, 5, -12
     129                            .dwcfi  save_reg_to_mem, 4, -16
     130                            .dwcfi  save_reg_to_mem, 3, -20
     131                            .dwcfi  save_reg_to_mem, 2, -24
     132                            .dwpsn  file "../main.c",line 73,column 11,is_stmt,isa 1
     133 00000002 4C15              LDR       V1, $C$CON1           ; [DPU_V7M3_PIPE] |73|  ; [ORIG 16-BIT INS]
     134                            .dwpsn  file "../main.c",line 68,column 5,is_stmt,isa 1
     135 00000004 4620              MOV       A1, V1                ; [DPU_V7M3_PIPE] |68|  ; [ORIG 16-BIT INS]
     136                    $C$DW$14        .dwtag  DW_TAG_TI_branch
     137                            .dwattr $C$DW$14, DW_AT_low_pc(0x00)
     138                            .dwattr $C$DW$14, DW_AT_name("SysCtlPeripheralEnable")
     139                            .dwattr $C$DW$14, DW_AT_TI_call
     140                    
     141 00000006 FFFEF7FF!         BL        SysCtlPeripheralEnable ; [DPU_V7M3_PIPE] |68|  ; [KEEP 32-BIT INS]
     142                            ; CALL OCCURS {SysCtlPeripheralEnable }  ; [] |68| 
     143                    ;* --------------------------------------------------------------------------*
     144                    ;*   BEGIN LOOP ||$C$L1||
     145                    ;*
     146                    ;*   Loop source line                : 73
     147                    ;*   Loop closing brace source line  : 75
     148                    ;*   Known Minimum Trip Count        : 1
     149                    ;*   Known Maximum Trip Count        : 4294967295
     150                    ;*   Known Max Trip Count Factor     : 1
     151                    ;* --------------------------------------------------------------------------*
     152 0000000a           ||$C$L1||:    
     153                            .dwpsn  file "../main.c",line 73,column 11,is_stmt,isa 1
     154 0000000a 4620              MOV       A1, V1                ; [DPU_V7M3_PIPE] |73|  ; [ORIG 16-BIT INS]
     155                    $C$DW$15        .dwtag  DW_TAG_TI_branch
     156                            .dwattr $C$DW$15, DW_AT_low_pc(0x00)
     157                            .dwattr $C$DW$15, DW_AT_name("SysCtlPeripheralReady")
     158                            .dwattr $C$DW$15, DW_AT_TI_call
     159                    
     160 0000000c FFFEF7FF!         BL        SysCtlPeripheralReady ; [DPU_V7M3_PIPE] |73|  ; [KEEP 32-BIT INS]
     161                            ; CALL OCCURS {SysCtlPeripheralReady }  ; [] |73| 
     162 00000010 2800              CMP       A1, #0                ; [DPU_V7M3_PIPE] |73|  ; [ORIG 16-BIT INS]
     163 00000012 D0FA              BEQ       ||$C$L1||             ; [DPU_V7M3_PIPE] |73|  ; [ORIG 16-BIT INS]
     164                            ; BRANCHCC OCCURS {||$C$L1||}    ; [] |73| 
     165                    ;* --------------------------------------------------------------------------*
TI ARM Assembler PC v18.12.3 Wed Oct 30 15:48:47 2019

Copyright (c) 1996-2018 Texas Instruments Incorporated
main.asm                                                             PAGE    4

     166                            .dwpsn  file "../main.c",line 103,column 9,is_stmt,isa 1
     167 00000014 4E11              LDR       V3, $C$CON2           ; [DPU_V7M3_PIPE] |103|  ; [ORIG 16-BIT INS]
     168                            .dwpsn  file "../main.c",line 81,column 5,is_stmt,isa 1
     169 00000016 2108              MOVS      A2, #8                ; [DPU_V7M3_PIPE] |81|  ; [ORIG 16-BIT INS]
     170 00000018 4630              MOV       A1, V3                ; [DPU_V7M3_PIPE] |81|  ; [ORIG 16-BIT INS]
     171                    $C$DW$16        .dwtag  DW_TAG_TI_branch
     172                            .dwattr $C$DW$16, DW_AT_low_pc(0x00)
     173                            .dwattr $C$DW$16, DW_AT_name("GPIOPinTypeGPIOOutput")
     174                            .dwattr $C$DW$16, DW_AT_TI_call
     175                    
     176 0000001a FFFEF7FF!         BL        GPIOPinTypeGPIOOutput ; [DPU_V7M3_PIPE] |81|  ; [KEEP 32-BIT INS]
     177                            ; CALL OCCURS {GPIOPinTypeGPIOOutput }  ; [] |81| 
     178                            .dwpsn  file "../main.c",line 96,column 27,is_stmt,isa 1
     179 0000001e 4C10              LDR       V1, $C$CON3           ; [DPU_V7M3_PIPE] |96|  ; [ORIG 16-BIT INS]
     180                            .dwpsn  file "../main.c",line 96,column 13,is_stmt,isa 1
     181 00000020 2500              MOVS      V2, #0                ; [DPU_V7M3_PIPE] |96|  ; [ORIG 16-BIT INS]
     182                    ;* --------------------------------------------------------------------------*
     183                    ;*   BEGIN LOOP ||$C$L2||
     184                    ;*
     185                    ;*   Loop source line                : 86
     186                    ;*   Loop closing brace source line  : 111
     187                    ;*   Known Minimum Trip Count        : 1
     188                    ;*   Known Maximum Trip Count        : 4294967295
     189                    ;*   Known Max Trip Count Factor     : 1
     190                    ;* --------------------------------------------------------------------------*
     191 00000022           ||$C$L2||:    
     192                            .dwpsn  file "../main.c",line 91,column 9,is_stmt,isa 1
     193 00000022 2108              MOVS      A2, #8                ; [DPU_V7M3_PIPE] |91|  ; [ORIG 16-BIT INS]
     194 00000024 4630              MOV       A1, V3                ; [DPU_V7M3_PIPE] |91|  ; [ORIG 16-BIT INS]
     195 00000026 460A              MOV       A3, A2                ; [DPU_V7M3_PIPE] |91|  ; [ORIG 16-BIT INS]
     196                    $C$DW$17        .dwtag  DW_TAG_TI_branch
     197                            .dwattr $C$DW$17, DW_AT_low_pc(0x00)
     198                            .dwattr $C$DW$17, DW_AT_name("GPIOPinWrite")
     199                            .dwattr $C$DW$17, DW_AT_TI_call
     200                    
     201 00000028 FFFEF7FF!         BL        GPIOPinWrite          ; [DPU_V7M3_PIPE] |91|  ; [KEEP 32-BIT INS]
     202                            ; CALL OCCURS {GPIOPinWrite }    ; [] |91| 
     203                            .dwpsn  file "../main.c",line 96,column 13,is_stmt,isa 1
     204 0000002c 9500              STR       V2, [SP, #0]          ; [DPU_V7M3_PIPE] |96|  ; [ORIG 16-BIT INS]
     205                    ;* --------------------------------------------------------------------------*
     206                    ;*   BEGIN LOOP ||$C$L3||
     207                    ;*
     208                    ;*   Loop source line                : 96
     209                    ;*   Loop closing brace source line  : 98
     210                    ;*   Known Minimum Trip Count        : 1
     211                    ;*   Known Maximum Trip Count        : 4294967295
     212                    ;*   Known Max Trip Count Factor     : 1
     213                    ;* --------------------------------------------------------------------------*
     214 0000002e           ||$C$L3||:    
     215                            .dwpsn  file "../main.c",line 96,column 27,is_stmt,isa 1
     216 0000002e 9800              LDR       A1, [SP, #0]          ; [DPU_V7M3_PIPE] |96|  ; [ORIG 16-BIT INS]
     217 00000030 4284              CMP       V1, A1                ; [DPU_V7M3_PIPE] |96|  ; [ORIG 16-BIT INS]
     218 00000032 D80C              BHI       ||$C$L5||             ; [DPU_V7M3_PIPE] |96|  ; [ORIG 16-BIT INS]
     219                            ; BRANCHCC OCCURS {||$C$L5||}    ; [] |96| 
     220                    ;* --------------------------------------------------------------------------*
TI ARM Assembler PC v18.12.3 Wed Oct 30 15:48:47 2019

Copyright (c) 1996-2018 Texas Instruments Incorporated
main.asm                                                             PAGE    5

     221                            .dwpsn  file "../main.c",line 103,column 9,is_stmt,isa 1
     222 00000034 4630              MOV       A1, V3                ; [DPU_V7M3_PIPE] |103|  ; [ORIG 16-BIT INS]
     223 00000036 2108              MOVS      A2, #8                ; [DPU_V7M3_PIPE] |103|  ; [ORIG 16-BIT INS]
     224 00000038 462A              MOV       A3, V2                ; [DPU_V7M3_PIPE] |103|  ; [ORIG 16-BIT INS]
     225                    $C$DW$18        .dwtag  DW_TAG_TI_branch
     226                            .dwattr $C$DW$18, DW_AT_low_pc(0x00)
     227                            .dwattr $C$DW$18, DW_AT_name("GPIOPinWrite")
     228                            .dwattr $C$DW$18, DW_AT_TI_call
     229                    
     230 0000003a FFFEF7FF!         BL        GPIOPinWrite          ; [DPU_V7M3_PIPE] |103|  ; [KEEP 32-BIT INS]
     231                            ; CALL OCCURS {GPIOPinWrite }    ; [] |103| 
     232                            .dwpsn  file "../main.c",line 108,column 13,is_stmt,isa 1
     233 0000003e 9500              STR       V2, [SP, #0]          ; [DPU_V7M3_PIPE] |108|  ; [ORIG 16-BIT INS]
     234                    ;* --------------------------------------------------------------------------*
     235                    ;*   BEGIN LOOP ||$C$L4||
     236                    ;*
     237                    ;*   Loop source line                : 108
     238                    ;*   Loop closing brace source line  : 110
     239                    ;*   Known Minimum Trip Count        : 1
     240                    ;*   Known Maximum Trip Count        : 4294967295
     241                    ;*   Known Max Trip Count Factor     : 1
     242                    ;* --------------------------------------------------------------------------*
     243 00000040           ||$C$L4||:    
     244                            .dwpsn  file "../main.c",line 108,column 27,is_stmt,isa 1
     245 00000040 9800              LDR       A1, [SP, #0]          ; [DPU_V7M3_PIPE] |108|  ; [ORIG 16-BIT INS]
     246 00000042 4284              CMP       V1, A1                ; [DPU_V7M3_PIPE] |108|  ; [ORIG 16-BIT INS]
     247 00000044 D9ED              BLS       ||$C$L2||             ; [DPU_V7M3_PIPE] |108|  ; [ORIG 16-BIT INS]
     248                            ; BRANCHCC OCCURS {||$C$L2||}    ; [] |108| 
     249                    ;* --------------------------------------------------------------------------*
     250                            .dwpsn  file "../main.c",line 108,column 46,is_stmt,isa 1
     251 00000046 9800              LDR       A1, [SP, #0]          ; [DPU_V7M3_PIPE] |108|  ; [ORIG 16-BIT INS]
     252 00000048 1C40              ADDS      A1, A1, #1            ; [DPU_V7M3_PIPE] |108|  ; [ORIG 16-BIT INS]
     253 0000004a 9000              STR       A1, [SP, #0]          ; [DPU_V7M3_PIPE] |108|  ; [ORIG 16-BIT INS]
     254                            .dwpsn  file "../main.c",line 108,column 27,is_stmt,isa 1
     255 0000004c E7F8              B         ||$C$L4||             ; [DPU_V7M3_PIPE] |108|  ; [ORIG 16-BIT INS]
     256                            ; BRANCH OCCURS {||$C$L4||}      ; [] |108| 
     257                    ;* --------------------------------------------------------------------------*
     258 0000004e           ||$C$L5||:    
     259                            .dwpsn  file "../main.c",line 96,column 46,is_stmt,isa 1
     260 0000004e 9800              LDR       A1, [SP, #0]          ; [DPU_V7M3_PIPE] |96|  ; [ORIG 16-BIT INS]
     261 00000050 1C40              ADDS      A1, A1, #1            ; [DPU_V7M3_PIPE] |96|  ; [ORIG 16-BIT INS]
     262 00000052 9000              STR       A1, [SP, #0]          ; [DPU_V7M3_PIPE] |96|  ; [ORIG 16-BIT INS]
     263                            .dwpsn  file "../main.c",line 96,column 27,is_stmt,isa 1
     264 00000054 E7EB              B         ||$C$L3||             ; [DPU_V7M3_PIPE] |96|  ; [ORIG 16-BIT INS]
     265                            ; BRANCH OCCURS {||$C$L3||}      ; [] |96| 
     266                            .dwattr $C$DW$12, DW_AT_TI_end_file("../main.c")
     267                            .dwattr $C$DW$12, DW_AT_TI_end_line(0x70)
     268                            .dwattr $C$DW$12, DW_AT_TI_end_column(0x01)
     269                            .dwendentry
     270                            .dwendtag $C$DW$12
     271                    
     272                    ;******************************************************************************
     273                    ;* CONSTANT TABLE                                                             *
     274                    ;******************************************************************************
     275 00000056                   .sect   ".text:main"
TI ARM Assembler PC v18.12.3 Wed Oct 30 15:48:47 2019

Copyright (c) 1996-2018 Texas Instruments Incorporated
main.asm                                                             PAGE    6

     276                            .align  4
     277 00000056 080546C0  ||$C$CON1||:    .bits           0xf0000805,32
         0000005a 0000F000 
     278                    
     279                            .align  4
     280 0000005a 5000F000  ||$C$CON2||:    .bits           0x40025000,32
         0000005e 00004002 
     281                    
     282                            .align  4
     283 0000005e 0D404002  ||$C$CON3||:    .bits           0x30d40,32
         00000062 00000003 
     284                    
     285                    ;*****************************************************************************
     286                    ;* UNDEFINED EXTERNAL REFERENCES                                             *
     287                    ;*****************************************************************************
     288                            .global SysCtlPeripheralEnable
     289                            .global SysCtlPeripheralReady
     290                            .global GPIOPinTypeGPIOOutput
     291                            .global GPIOPinWrite
     292                    
     293                    ;******************************************************************************
     294                    ;* BUILD ATTRIBUTES                                                           *
     295                    ;******************************************************************************
     296                            .battr "TI", Tag_File, 1, Tag_LPM_INFO(1)
     297                            .battr "TI", Tag_File, 1, Tag_PORTS_INIT_INFO("012345678901ABCDEFGHIJ0000000000000000000000000
     298                            .battr "aeabi", Tag_File, 1, Tag_ABI_PCS_wchar_t(2)
     299                            .battr "aeabi", Tag_File, 1, Tag_ABI_FP_rounding(0)
     300                            .battr "aeabi", Tag_File, 1, Tag_ABI_FP_denormal(0)
     301                            .battr "aeabi", Tag_File, 1, Tag_ABI_FP_exceptions(0)
     302                            .battr "aeabi", Tag_File, 1, Tag_ABI_FP_number_model(1)
     303                            .battr "aeabi", Tag_File, 1, Tag_ABI_enum_size(0)
     304                            .battr "aeabi", Tag_File, 1, Tag_ABI_optimization_goals(4)
     305                            .battr "aeabi", Tag_File, 1, Tag_ABI_FP_optimization_goals(0)
     306                            .battr "TI", Tag_File, 1, Tag_Bitfield_layout(2)
     307                            .battr "aeabi", Tag_File, 1, Tag_ABI_VFP_args(3)
     308                            .battr "TI", Tag_File, 1, Tag_FP_interface(1)
     309                    
     310                    ;******************************************************************************
     311                    ;* TYPE INFORMATION                                                           *
     312                    ;******************************************************************************
     313                    
     314                    $C$DW$T$21      .dwtag  DW_TAG_structure_type
     315                            .dwattr $C$DW$T$21, DW_AT_byte_size(0x10)
     316                    $C$DW$19        .dwtag  DW_TAG_member
     317                            .dwattr $C$DW$19, DW_AT_type(*$C$DW$T$14)
     318                            .dwattr $C$DW$19, DW_AT_name("__max_align1")
     319                            .dwattr $C$DW$19, DW_AT_TI_symbol_name("__max_align1")
     320                            .dwattr $C$DW$19, DW_AT_data_member_location[DW_OP_plus_uconst 0x0]
     321                            .dwattr $C$DW$19, DW_AT_accessibility(DW_ACCESS_public)
     322                            .dwattr $C$DW$19, DW_AT_decl_file("C:/ti/ccs920/ccs/tools/compiler/ti-cgt-arm_18.12.3.LTS/incl
     323                            .dwattr $C$DW$19, DW_AT_decl_line(0x7a)
     324                            .dwattr $C$DW$19, DW_AT_decl_column(0x0c)
     325                    
     326                    $C$DW$20        .dwtag  DW_TAG_member
     327                            .dwattr $C$DW$20, DW_AT_type(*$C$DW$T$18)
TI ARM Assembler PC v18.12.3 Wed Oct 30 15:48:47 2019

Copyright (c) 1996-2018 Texas Instruments Incorporated
main.asm                                                             PAGE    7

     328                            .dwattr $C$DW$20, DW_AT_name("__max_align2")
     329                            .dwattr $C$DW$20, DW_AT_TI_symbol_name("__max_align2")
     330                            .dwattr $C$DW$20, DW_AT_data_member_location[DW_OP_plus_uconst 0x8]
     331                            .dwattr $C$DW$20, DW_AT_accessibility(DW_ACCESS_public)
     332                            .dwattr $C$DW$20, DW_AT_decl_file("C:/ti/ccs920/ccs/tools/compiler/ti-cgt-arm_18.12.3.LTS/incl
     333                            .dwattr $C$DW$20, DW_AT_decl_line(0x7b)
     334                            .dwattr $C$DW$20, DW_AT_decl_column(0x0e)
     335                    
     336                            .dwattr $C$DW$T$21, DW_AT_decl_file("C:/ti/ccs920/ccs/tools/compiler/ti-cgt-arm_18.12.3.LTS/in
     337                            .dwattr $C$DW$T$21, DW_AT_decl_line(0x79)
     338                            .dwattr $C$DW$T$21, DW_AT_decl_column(0x10)
     339                            .dwendtag $C$DW$T$21
     340                    
     341                    $C$DW$T$23      .dwtag  DW_TAG_typedef
     342                            .dwattr $C$DW$T$23, DW_AT_name("__max_align_t")
     343                            .dwattr $C$DW$T$23, DW_AT_type(*$C$DW$T$21)
     344                            .dwattr $C$DW$T$23, DW_AT_language(DW_LANG_C)
     345                            .dwattr $C$DW$T$23, DW_AT_decl_file("C:/ti/ccs920/ccs/tools/compiler/ti-cgt-arm_18.12.3.LTS/in
     346                            .dwattr $C$DW$T$23, DW_AT_decl_line(0x7c)
     347                            .dwattr $C$DW$T$23, DW_AT_decl_column(0x03)
     348                    
     349                    $C$DW$T$2       .dwtag  DW_TAG_unspecified_type
     350                            .dwattr $C$DW$T$2, DW_AT_name("void")
     351                    
     352                    $C$DW$T$3       .dwtag  DW_TAG_pointer_type
     353                            .dwattr $C$DW$T$3, DW_AT_type(*$C$DW$T$2)
     354                            .dwattr $C$DW$T$3, DW_AT_address_class(0x20)
     355                    
     356                    $C$DW$T$4       .dwtag  DW_TAG_base_type
     357                            .dwattr $C$DW$T$4, DW_AT_encoding(DW_ATE_boolean)
     358                            .dwattr $C$DW$T$4, DW_AT_name("bool")
     359                            .dwattr $C$DW$T$4, DW_AT_byte_size(0x01)
     360                    
     361                    $C$DW$T$5       .dwtag  DW_TAG_base_type
     362                            .dwattr $C$DW$T$5, DW_AT_encoding(DW_ATE_signed_char)
     363                            .dwattr $C$DW$T$5, DW_AT_name("signed char")
     364                            .dwattr $C$DW$T$5, DW_AT_byte_size(0x01)
     365                    
     366                    $C$DW$T$34      .dwtag  DW_TAG_typedef
     367                            .dwattr $C$DW$T$34, DW_AT_name("__int8_t")
     368                            .dwattr $C$DW$T$34, DW_AT_type(*$C$DW$T$5)
     369                            .dwattr $C$DW$T$34, DW_AT_language(DW_LANG_C)
     370                            .dwattr $C$DW$T$34, DW_AT_decl_file("C:/ti/ccs920/ccs/tools/compiler/ti-cgt-arm_18.12.3.LTS/in
     371                            .dwattr $C$DW$T$34, DW_AT_decl_line(0x39)
     372                            .dwattr $C$DW$T$34, DW_AT_decl_column(0x16)
     373                    
     374                    $C$DW$T$35      .dwtag  DW_TAG_typedef
     375                            .dwattr $C$DW$T$35, DW_AT_name("__int_least8_t")
     376                            .dwattr $C$DW$T$35, DW_AT_type(*$C$DW$T$34)
     377                            .dwattr $C$DW$T$35, DW_AT_language(DW_LANG_C)
     378                            .dwattr $C$DW$T$35, DW_AT_decl_file("C:/ti/ccs920/ccs/tools/compiler/ti-cgt-arm_18.12.3.LTS/in
     379                            .dwattr $C$DW$T$35, DW_AT_decl_line(0x58)
     380                            .dwattr $C$DW$T$35, DW_AT_decl_column(0x12)
     381                    
     382                    $C$DW$T$36      .dwtag  DW_TAG_typedef
TI ARM Assembler PC v18.12.3 Wed Oct 30 15:48:47 2019

Copyright (c) 1996-2018 Texas Instruments Incorporated
main.asm                                                             PAGE    8

     383                            .dwattr $C$DW$T$36, DW_AT_name("int_least8_t")
     384                            .dwattr $C$DW$T$36, DW_AT_type(*$C$DW$T$35)
     385                            .dwattr $C$DW$T$36, DW_AT_language(DW_LANG_C)
     386                            .dwattr $C$DW$T$36, DW_AT_decl_file("C:/ti/ccs920/ccs/tools/compiler/ti-cgt-arm_18.12.3.LTS/in
     387                            .dwattr $C$DW$T$36, DW_AT_decl_line(0x28)
     388                            .dwattr $C$DW$T$36, DW_AT_decl_column(0x19)
     389                    
     390                    $C$DW$T$37      .dwtag  DW_TAG_typedef
     391                            .dwattr $C$DW$T$37, DW_AT_name("int8_t")
     392                            .dwattr $C$DW$T$37, DW_AT_type(*$C$DW$T$34)
     393                            .dwattr $C$DW$T$37, DW_AT_language(DW_LANG_C)
     394                            .dwattr $C$DW$T$37, DW_AT_decl_file("C:/ti/ccs920/ccs/tools/compiler/ti-cgt-arm_18.12.3.LTS/in
     395                            .dwattr $C$DW$T$37, DW_AT_decl_line(0x25)
     396                            .dwattr $C$DW$T$37, DW_AT_decl_column(0x13)
     397                    
     398                    $C$DW$T$6       .dwtag  DW_TAG_base_type
     399                            .dwattr $C$DW$T$6, DW_AT_encoding(DW_ATE_unsigned_char)
     400                            .dwattr $C$DW$T$6, DW_AT_name("unsigned char")
     401                            .dwattr $C$DW$T$6, DW_AT_byte_size(0x01)
     402                    
     403                    $C$DW$T$26      .dwtag  DW_TAG_typedef
     404                            .dwattr $C$DW$T$26, DW_AT_name("__uint8_t")
     405                            .dwattr $C$DW$T$26, DW_AT_type(*$C$DW$T$6)
     406                            .dwattr $C$DW$T$26, DW_AT_language(DW_LANG_C)
     407                            .dwattr $C$DW$T$26, DW_AT_decl_file("C:/ti/ccs920/ccs/tools/compiler/ti-cgt-arm_18.12.3.LTS/in
     408                            .dwattr $C$DW$T$26, DW_AT_decl_line(0x3a)
     409                            .dwattr $C$DW$T$26, DW_AT_decl_column(0x18)
     410                    
     411                    $C$DW$T$40      .dwtag  DW_TAG_typedef
     412                            .dwattr $C$DW$T$40, DW_AT_name("__sa_family_t")
     413                            .dwattr $C$DW$T$40, DW_AT_type(*$C$DW$T$26)
     414                            .dwattr $C$DW$T$40, DW_AT_language(DW_LANG_C)
     415                            .dwattr $C$DW$T$40, DW_AT_decl_file("C:/ti/ccs920/ccs/tools/compiler/ti-cgt-arm_18.12.3.LTS/in
     416                            .dwattr $C$DW$T$40, DW_AT_decl_line(0x46)
     417                            .dwattr $C$DW$T$40, DW_AT_decl_column(0x13)
     418                    
     419                    $C$DW$T$41      .dwtag  DW_TAG_typedef
     420                            .dwattr $C$DW$T$41, DW_AT_name("__uint_least8_t")
     421                            .dwattr $C$DW$T$41, DW_AT_type(*$C$DW$T$26)
     422                            .dwattr $C$DW$T$41, DW_AT_language(DW_LANG_C)
     423                            .dwattr $C$DW$T$41, DW_AT_decl_file("C:/ti/ccs920/ccs/tools/compiler/ti-cgt-arm_18.12.3.LTS/in
     424                            .dwattr $C$DW$T$41, DW_AT_decl_line(0x6d)
     425                            .dwattr $C$DW$T$41, DW_AT_decl_column(0x13)
     426                    
     427                    $C$DW$T$42      .dwtag  DW_TAG_typedef
     428                            .dwattr $C$DW$T$42, DW_AT_name("uint_least8_t")
     429                            .dwattr $C$DW$T$42, DW_AT_type(*$C$DW$T$41)
     430                            .dwattr $C$DW$T$42, DW_AT_language(DW_LANG_C)
     431                            .dwattr $C$DW$T$42, DW_AT_decl_file("C:/ti/ccs920/ccs/tools/compiler/ti-cgt-arm_18.12.3.LTS/in
     432                            .dwattr $C$DW$T$42, DW_AT_decl_line(0x2d)
     433                            .dwattr $C$DW$T$42, DW_AT_decl_column(0x1a)
     434                    
     435                    $C$DW$T$27      .dwtag  DW_TAG_typedef
     436                            .dwattr $C$DW$T$27, DW_AT_name("uint8_t")
     437                            .dwattr $C$DW$T$27, DW_AT_type(*$C$DW$T$26)
TI ARM Assembler PC v18.12.3 Wed Oct 30 15:48:47 2019

Copyright (c) 1996-2018 Texas Instruments Incorporated
main.asm                                                             PAGE    9

     438                            .dwattr $C$DW$T$27, DW_AT_language(DW_LANG_C)
     439                            .dwattr $C$DW$T$27, DW_AT_decl_file("C:/ti/ccs920/ccs/tools/compiler/ti-cgt-arm_18.12.3.LTS/in
     440                            .dwattr $C$DW$T$27, DW_AT_decl_line(0x3b)
     441                            .dwattr $C$DW$T$27, DW_AT_decl_column(0x14)
     442                    
     443                    $C$DW$T$7       .dwtag  DW_TAG_base_type
     444                            .dwattr $C$DW$T$7, DW_AT_encoding(DW_ATE_signed_char)
     445                            .dwattr $C$DW$T$7, DW_AT_name("wchar_t")
     446                            .dwattr $C$DW$T$7, DW_AT_byte_size(0x02)
     447                    
     448                    $C$DW$T$8       .dwtag  DW_TAG_base_type
     449                            .dwattr $C$DW$T$8, DW_AT_encoding(DW_ATE_signed)
     450                            .dwattr $C$DW$T$8, DW_AT_name("short")
     451                            .dwattr $C$DW$T$8, DW_AT_byte_size(0x02)
     452                    
     453                    $C$DW$T$43      .dwtag  DW_TAG_typedef
     454                            .dwattr $C$DW$T$43, DW_AT_name("__int16_t")
     455                            .dwattr $C$DW$T$43, DW_AT_type(*$C$DW$T$8)
     456                            .dwattr $C$DW$T$43, DW_AT_language(DW_LANG_C)
     457                            .dwattr $C$DW$T$43, DW_AT_decl_file("C:/ti/ccs920/ccs/tools/compiler/ti-cgt-arm_18.12.3.LTS/in
     458                            .dwattr $C$DW$T$43, DW_AT_decl_line(0x3b)
     459                            .dwattr $C$DW$T$43, DW_AT_decl_column(0x11)
     460                    
     461                    $C$DW$T$44      .dwtag  DW_TAG_typedef
     462                            .dwattr $C$DW$T$44, DW_AT_name("__int_least16_t")
     463                            .dwattr $C$DW$T$44, DW_AT_type(*$C$DW$T$43)
     464                            .dwattr $C$DW$T$44, DW_AT_language(DW_LANG_C)
     465                            .dwattr $C$DW$T$44, DW_AT_decl_file("C:/ti/ccs920/ccs/tools/compiler/ti-cgt-arm_18.12.3.LTS/in
     466                            .dwattr $C$DW$T$44, DW_AT_decl_line(0x59)
     467                            .dwattr $C$DW$T$44, DW_AT_decl_column(0x13)
     468                    
     469                    $C$DW$T$45      .dwtag  DW_TAG_typedef
     470                            .dwattr $C$DW$T$45, DW_AT_name("int_least16_t")
     471                            .dwattr $C$DW$T$45, DW_AT_type(*$C$DW$T$44)
     472                            .dwattr $C$DW$T$45, DW_AT_language(DW_LANG_C)
     473                            .dwattr $C$DW$T$45, DW_AT_decl_file("C:/ti/ccs920/ccs/tools/compiler/ti-cgt-arm_18.12.3.LTS/in
     474                            .dwattr $C$DW$T$45, DW_AT_decl_line(0x29)
     475                            .dwattr $C$DW$T$45, DW_AT_decl_column(0x1a)
     476                    
     477                    $C$DW$T$46      .dwtag  DW_TAG_typedef
     478                            .dwattr $C$DW$T$46, DW_AT_name("int16_t")
     479                            .dwattr $C$DW$T$46, DW_AT_type(*$C$DW$T$43)
     480                            .dwattr $C$DW$T$46, DW_AT_language(DW_LANG_C)
     481                            .dwattr $C$DW$T$46, DW_AT_decl_file("C:/ti/ccs920/ccs/tools/compiler/ti-cgt-arm_18.12.3.LTS/in
     482                            .dwattr $C$DW$T$46, DW_AT_decl_line(0x2b)
     483                            .dwattr $C$DW$T$46, DW_AT_decl_column(0x14)
     484                    
     485                    $C$DW$T$9       .dwtag  DW_TAG_base_type
     486                            .dwattr $C$DW$T$9, DW_AT_encoding(DW_ATE_unsigned)
     487                            .dwattr $C$DW$T$9, DW_AT_name("unsigned short")
     488                            .dwattr $C$DW$T$9, DW_AT_byte_size(0x02)
     489                    
     490                    $C$DW$T$47      .dwtag  DW_TAG_typedef
     491                            .dwattr $C$DW$T$47, DW_AT_name("___wchar_t")
     492                            .dwattr $C$DW$T$47, DW_AT_type(*$C$DW$T$9)
TI ARM Assembler PC v18.12.3 Wed Oct 30 15:48:47 2019

Copyright (c) 1996-2018 Texas Instruments Incorporated
main.asm                                                             PAGE   10

     493                            .dwattr $C$DW$T$47, DW_AT_language(DW_LANG_C)
     494                            .dwattr $C$DW$T$47, DW_AT_decl_file("C:/ti/ccs920/ccs/tools/compiler/ti-cgt-arm_18.12.3.LTS/in
     495                            .dwattr $C$DW$T$47, DW_AT_decl_line(0x79)
     496                            .dwattr $C$DW$T$47, DW_AT_decl_column(0x1a)
     497                    
     498                    $C$DW$T$48      .dwtag  DW_TAG_typedef
     499                            .dwattr $C$DW$T$48, DW_AT_name("__uint16_t")
     500                            .dwattr $C$DW$T$48, DW_AT_type(*$C$DW$T$9)
     501                            .dwattr $C$DW$T$48, DW_AT_language(DW_LANG_C)
     502                            .dwattr $C$DW$T$48, DW_AT_decl_file("C:/ti/ccs920/ccs/tools/compiler/ti-cgt-arm_18.12.3.LTS/in
     503                            .dwattr $C$DW$T$48, DW_AT_decl_line(0x3c)
     504                            .dwattr $C$DW$T$48, DW_AT_decl_column(0x19)
     505                    
     506                    $C$DW$T$49      .dwtag  DW_TAG_typedef
     507                            .dwattr $C$DW$T$49, DW_AT_name("__mode_t")
     508                            .dwattr $C$DW$T$49, DW_AT_type(*$C$DW$T$48)
     509                            .dwattr $C$DW$T$49, DW_AT_language(DW_LANG_C)
     510                            .dwattr $C$DW$T$49, DW_AT_decl_file("C:/ti/ccs920/ccs/tools/compiler/ti-cgt-arm_18.12.3.LTS/in
     511                            .dwattr $C$DW$T$49, DW_AT_decl_line(0x39)
     512                            .dwattr $C$DW$T$49, DW_AT_decl_column(0x14)
     513                    
     514                    $C$DW$T$50      .dwtag  DW_TAG_typedef
     515                            .dwattr $C$DW$T$50, DW_AT_name("__uint_least16_t")
     516                            .dwattr $C$DW$T$50, DW_AT_type(*$C$DW$T$48)
     517                            .dwattr $C$DW$T$50, DW_AT_language(DW_LANG_C)
     518                            .dwattr $C$DW$T$50, DW_AT_decl_file("C:/ti/ccs920/ccs/tools/compiler/ti-cgt-arm_18.12.3.LTS/in
     519                            .dwattr $C$DW$T$50, DW_AT_decl_line(0x6e)
     520                            .dwattr $C$DW$T$50, DW_AT_decl_column(0x14)
     521                    
     522                    $C$DW$T$51      .dwtag  DW_TAG_typedef
     523                            .dwattr $C$DW$T$51, DW_AT_name("__char16_t")
     524                            .dwattr $C$DW$T$51, DW_AT_type(*$C$DW$T$50)
     525                            .dwattr $C$DW$T$51, DW_AT_language(DW_LANG_C)
     526                            .dwattr $C$DW$T$51, DW_AT_decl_file("C:/ti/ccs920/ccs/tools/compiler/ti-cgt-arm_18.12.3.LTS/in
     527                            .dwattr $C$DW$T$51, DW_AT_decl_line(0x70)
     528                            .dwattr $C$DW$T$51, DW_AT_decl_column(0x1a)
     529                    
     530                    $C$DW$T$52      .dwtag  DW_TAG_typedef
     531                            .dwattr $C$DW$T$52, DW_AT_name("uint_least16_t")
     532                            .dwattr $C$DW$T$52, DW_AT_type(*$C$DW$T$50)
     533                            .dwattr $C$DW$T$52, DW_AT_language(DW_LANG_C)
     534                            .dwattr $C$DW$T$52, DW_AT_decl_file("C:/ti/ccs920/ccs/tools/compiler/ti-cgt-arm_18.12.3.LTS/in
     535                            .dwattr $C$DW$T$52, DW_AT_decl_line(0x2e)
     536                            .dwattr $C$DW$T$52, DW_AT_decl_column(0x1a)
     537                    
     538                    $C$DW$T$53      .dwtag  DW_TAG_typedef
     539                            .dwattr $C$DW$T$53, DW_AT_name("uint16_t")
     540                            .dwattr $C$DW$T$53, DW_AT_type(*$C$DW$T$48)
     541                            .dwattr $C$DW$T$53, DW_AT_language(DW_LANG_C)
     542                            .dwattr $C$DW$T$53, DW_AT_decl_file("C:/ti/ccs920/ccs/tools/compiler/ti-cgt-arm_18.12.3.LTS/in
     543                            .dwattr $C$DW$T$53, DW_AT_decl_line(0x41)
     544                            .dwattr $C$DW$T$53, DW_AT_decl_column(0x15)
     545                    
     546                    $C$DW$T$10      .dwtag  DW_TAG_base_type
     547                            .dwattr $C$DW$T$10, DW_AT_encoding(DW_ATE_signed)
TI ARM Assembler PC v18.12.3 Wed Oct 30 15:48:47 2019

Copyright (c) 1996-2018 Texas Instruments Incorporated
main.asm                                                             PAGE   11

     548                            .dwattr $C$DW$T$10, DW_AT_name("int")
     549                            .dwattr $C$DW$T$10, DW_AT_byte_size(0x04)
     550                    
     551                    $C$DW$T$54      .dwtag  DW_TAG_typedef
     552                            .dwattr $C$DW$T$54, DW_AT_name("_Mbstatet")
     553                            .dwattr $C$DW$T$54, DW_AT_type(*$C$DW$T$10)
     554                            .dwattr $C$DW$T$54, DW_AT_language(DW_LANG_C)
     555                            .dwattr $C$DW$T$54, DW_AT_decl_file("C:/ti/ccs920/ccs/tools/compiler/ti-cgt-arm_18.12.3.LTS/in
     556                            .dwattr $C$DW$T$54, DW_AT_decl_line(0x8e)
     557                            .dwattr $C$DW$T$54, DW_AT_decl_column(0x0d)
     558                    
     559                    $C$DW$T$55      .dwtag  DW_TAG_typedef
     560                            .dwattr $C$DW$T$55, DW_AT_name("__mbstate_t")
     561                            .dwattr $C$DW$T$55, DW_AT_type(*$C$DW$T$54)
     562                            .dwattr $C$DW$T$55, DW_AT_language(DW_LANG_C)
     563                            .dwattr $C$DW$T$55, DW_AT_decl_file("C:/ti/ccs920/ccs/tools/compiler/ti-cgt-arm_18.12.3.LTS/in
     564                            .dwattr $C$DW$T$55, DW_AT_decl_line(0x91)
     565                            .dwattr $C$DW$T$55, DW_AT_decl_column(0x13)
     566                    
     567                    $C$DW$T$56      .dwtag  DW_TAG_typedef
     568                            .dwattr $C$DW$T$56, DW_AT_name("__accmode_t")
     569                            .dwattr $C$DW$T$56, DW_AT_type(*$C$DW$T$10)
     570                            .dwattr $C$DW$T$56, DW_AT_language(DW_LANG_C)
     571                            .dwattr $C$DW$T$56, DW_AT_decl_file("C:/ti/ccs920/ccs/tools/compiler/ti-cgt-arm_18.12.3.LTS/in
     572                            .dwattr $C$DW$T$56, DW_AT_decl_line(0x3a)
     573                            .dwattr $C$DW$T$56, DW_AT_decl_column(0x0e)
     574                    
     575                    $C$DW$T$58      .dwtag  DW_TAG_typedef
     576                            .dwattr $C$DW$T$58, DW_AT_name("__cpulevel_t")
     577                            .dwattr $C$DW$T$58, DW_AT_type(*$C$DW$T$10)
     578                            .dwattr $C$DW$T$58, DW_AT_language(DW_LANG_C)
     579                            .dwattr $C$DW$T$58, DW_AT_decl_file("C:/ti/ccs920/ccs/tools/compiler/ti-cgt-arm_18.12.3.LTS/in
     580                            .dwattr $C$DW$T$58, DW_AT_decl_line(0x4f)
     581                            .dwattr $C$DW$T$58, DW_AT_decl_column(0x0e)
     582                    
     583                    $C$DW$T$59      .dwtag  DW_TAG_typedef
     584                            .dwattr $C$DW$T$59, DW_AT_name("__cpusetid_t")
     585                            .dwattr $C$DW$T$59, DW_AT_type(*$C$DW$T$10)
     586                            .dwattr $C$DW$T$59, DW_AT_language(DW_LANG_C)
     587                            .dwattr $C$DW$T$59, DW_AT_decl_file("C:/ti/ccs920/ccs/tools/compiler/ti-cgt-arm_18.12.3.LTS/in
     588                            .dwattr $C$DW$T$59, DW_AT_decl_line(0x50)
     589                            .dwattr $C$DW$T$59, DW_AT_decl_column(0x0e)
     590                    
     591                    $C$DW$T$60      .dwtag  DW_TAG_typedef
     592                            .dwattr $C$DW$T$60, DW_AT_name("__cpuwhich_t")
     593                            .dwattr $C$DW$T$60, DW_AT_type(*$C$DW$T$10)
     594                            .dwattr $C$DW$T$60, DW_AT_language(DW_LANG_C)
     595                            .dwattr $C$DW$T$60, DW_AT_decl_file("C:/ti/ccs920/ccs/tools/compiler/ti-cgt-arm_18.12.3.LTS/in
     596                            .dwattr $C$DW$T$60, DW_AT_decl_line(0x4e)
     597                            .dwattr $C$DW$T$60, DW_AT_decl_column(0x0e)
     598                    
     599                    $C$DW$T$61      .dwtag  DW_TAG_typedef
     600                            .dwattr $C$DW$T$61, DW_AT_name("__ct_rune_t")
     601                            .dwattr $C$DW$T$61, DW_AT_type(*$C$DW$T$10)
     602                            .dwattr $C$DW$T$61, DW_AT_language(DW_LANG_C)
TI ARM Assembler PC v18.12.3 Wed Oct 30 15:48:47 2019

Copyright (c) 1996-2018 Texas Instruments Incorporated
main.asm                                                             PAGE   12

     603                            .dwattr $C$DW$T$61, DW_AT_decl_file("C:/ti/ccs920/ccs/tools/compiler/ti-cgt-arm_18.12.3.LTS/in
     604                            .dwattr $C$DW$T$61, DW_AT_decl_line(0x68)
     605                            .dwattr $C$DW$T$61, DW_AT_decl_column(0x0e)
     606                    
     607                    $C$DW$T$62      .dwtag  DW_TAG_typedef
     608                            .dwattr $C$DW$T$62, DW_AT_name("__rune_t")
     609                            .dwattr $C$DW$T$62, DW_AT_type(*$C$DW$T$61)
     610                            .dwattr $C$DW$T$62, DW_AT_language(DW_LANG_C)
     611                            .dwattr $C$DW$T$62, DW_AT_decl_file("C:/ti/ccs920/ccs/tools/compiler/ti-cgt-arm_18.12.3.LTS/in
     612                            .dwattr $C$DW$T$62, DW_AT_decl_line(0x6b)
     613                            .dwattr $C$DW$T$62, DW_AT_decl_column(0x15)
     614                    
     615                    $C$DW$T$63      .dwtag  DW_TAG_typedef
     616                            .dwattr $C$DW$T$63, DW_AT_name("__wint_t")
     617                            .dwattr $C$DW$T$63, DW_AT_type(*$C$DW$T$61)
     618                            .dwattr $C$DW$T$63, DW_AT_language(DW_LANG_C)
     619                            .dwattr $C$DW$T$63, DW_AT_decl_file("C:/ti/ccs920/ccs/tools/compiler/ti-cgt-arm_18.12.3.LTS/in
     620                            .dwattr $C$DW$T$63, DW_AT_decl_line(0x6c)
     621                            .dwattr $C$DW$T$63, DW_AT_decl_column(0x15)
     622                    
     623                    $C$DW$T$64      .dwtag  DW_TAG_typedef
     624                            .dwattr $C$DW$T$64, DW_AT_name("__int32_t")
     625                            .dwattr $C$DW$T$64, DW_AT_type(*$C$DW$T$10)
     626                            .dwattr $C$DW$T$64, DW_AT_language(DW_LANG_C)
     627                            .dwattr $C$DW$T$64, DW_AT_decl_file("C:/ti/ccs920/ccs/tools/compiler/ti-cgt-arm_18.12.3.LTS/in
     628                            .dwattr $C$DW$T$64, DW_AT_decl_line(0x3d)
     629                            .dwattr $C$DW$T$64, DW_AT_decl_column(0x0f)
     630                    
     631                    $C$DW$T$65      .dwtag  DW_TAG_typedef
     632                            .dwattr $C$DW$T$65, DW_AT_name("__blksize_t")
     633                            .dwattr $C$DW$T$65, DW_AT_type(*$C$DW$T$64)
     634                            .dwattr $C$DW$T$65, DW_AT_language(DW_LANG_C)
     635                            .dwattr $C$DW$T$65, DW_AT_decl_file("C:/ti/ccs920/ccs/tools/compiler/ti-cgt-arm_18.12.3.LTS/in
     636                            .dwattr $C$DW$T$65, DW_AT_decl_line(0x2e)
     637                            .dwattr $C$DW$T$65, DW_AT_decl_column(0x13)
     638                    
     639                    $C$DW$T$66      .dwtag  DW_TAG_typedef
     640                            .dwattr $C$DW$T$66, DW_AT_name("__clockid_t")
     641                            .dwattr $C$DW$T$66, DW_AT_type(*$C$DW$T$64)
     642                            .dwattr $C$DW$T$66, DW_AT_language(DW_LANG_C)
     643                            .dwattr $C$DW$T$66, DW_AT_decl_file("C:/ti/ccs920/ccs/tools/compiler/ti-cgt-arm_18.12.3.LTS/in
     644                            .dwattr $C$DW$T$66, DW_AT_decl_line(0x30)
     645                            .dwattr $C$DW$T$66, DW_AT_decl_column(0x13)
     646                    
     647                    $C$DW$T$67      .dwtag  DW_TAG_typedef
     648                            .dwattr $C$DW$T$67, DW_AT_name("__critical_t")
     649                            .dwattr $C$DW$T$67, DW_AT_type(*$C$DW$T$64)
     650                            .dwattr $C$DW$T$67, DW_AT_language(DW_LANG_C)
     651                            .dwattr $C$DW$T$67, DW_AT_decl_file("C:/ti/ccs920/ccs/tools/compiler/ti-cgt-arm_18.12.3.LTS/in
     652                            .dwattr $C$DW$T$67, DW_AT_decl_line(0x4e)
     653                            .dwattr $C$DW$T$67, DW_AT_decl_column(0x13)
     654                    
     655                    $C$DW$T$68      .dwtag  DW_TAG_typedef
     656                            .dwattr $C$DW$T$68, DW_AT_name("__int_fast16_t")
     657                            .dwattr $C$DW$T$68, DW_AT_type(*$C$DW$T$64)
TI ARM Assembler PC v18.12.3 Wed Oct 30 15:48:47 2019

Copyright (c) 1996-2018 Texas Instruments Incorporated
main.asm                                                             PAGE   13

     658                            .dwattr $C$DW$T$68, DW_AT_language(DW_LANG_C)
     659                            .dwattr $C$DW$T$68, DW_AT_decl_file("C:/ti/ccs920/ccs/tools/compiler/ti-cgt-arm_18.12.3.LTS/in
     660                            .dwattr $C$DW$T$68, DW_AT_decl_line(0x55)
     661                            .dwattr $C$DW$T$68, DW_AT_decl_column(0x13)
     662                    
     663                    $C$DW$T$69      .dwtag  DW_TAG_typedef
     664                            .dwattr $C$DW$T$69, DW_AT_name("int_fast16_t")
     665                            .dwattr $C$DW$T$69, DW_AT_type(*$C$DW$T$68)
     666                            .dwattr $C$DW$T$69, DW_AT_language(DW_LANG_C)
     667                            .dwattr $C$DW$T$69, DW_AT_decl_file("C:/ti/ccs920/ccs/tools/compiler/ti-cgt-arm_18.12.3.LTS/in
     668                            .dwattr $C$DW$T$69, DW_AT_decl_line(0x33)
     669                            .dwattr $C$DW$T$69, DW_AT_decl_column(0x19)
     670                    
     671                    $C$DW$T$70      .dwtag  DW_TAG_typedef
     672                            .dwattr $C$DW$T$70, DW_AT_name("__int_fast32_t")
     673                            .dwattr $C$DW$T$70, DW_AT_type(*$C$DW$T$64)
     674                            .dwattr $C$DW$T$70, DW_AT_language(DW_LANG_C)
     675                            .dwattr $C$DW$T$70, DW_AT_decl_file("C:/ti/ccs920/ccs/tools/compiler/ti-cgt-arm_18.12.3.LTS/in
     676                            .dwattr $C$DW$T$70, DW_AT_decl_line(0x56)
     677                            .dwattr $C$DW$T$70, DW_AT_decl_column(0x13)
     678                    
     679                    $C$DW$T$71      .dwtag  DW_TAG_typedef
     680                            .dwattr $C$DW$T$71, DW_AT_name("int_fast32_t")
     681                            .dwattr $C$DW$T$71, DW_AT_type(*$C$DW$T$70)
     682                            .dwattr $C$DW$T$71, DW_AT_language(DW_LANG_C)
     683                            .dwattr $C$DW$T$71, DW_AT_decl_file("C:/ti/ccs920/ccs/tools/compiler/ti-cgt-arm_18.12.3.LTS/in
     684                            .dwattr $C$DW$T$71, DW_AT_decl_line(0x34)
     685                            .dwattr $C$DW$T$71, DW_AT_decl_column(0x19)
     686                    
     687                    $C$DW$T$72      .dwtag  DW_TAG_typedef
     688                            .dwattr $C$DW$T$72, DW_AT_name("__int_fast8_t")
     689                            .dwattr $C$DW$T$72, DW_AT_type(*$C$DW$T$64)
     690                            .dwattr $C$DW$T$72, DW_AT_language(DW_LANG_C)
     691                            .dwattr $C$DW$T$72, DW_AT_decl_file("C:/ti/ccs920/ccs/tools/compiler/ti-cgt-arm_18.12.3.LTS/in
     692                            .dwattr $C$DW$T$72, DW_AT_decl_line(0x54)
     693                            .dwattr $C$DW$T$72, DW_AT_decl_column(0x13)
     694                    
     695                    $C$DW$T$73      .dwtag  DW_TAG_typedef
     696                            .dwattr $C$DW$T$73, DW_AT_name("int_fast8_t")
     697                            .dwattr $C$DW$T$73, DW_AT_type(*$C$DW$T$72)
     698                            .dwattr $C$DW$T$73, DW_AT_language(DW_LANG_C)
     699                            .dwattr $C$DW$T$73, DW_AT_decl_file("C:/ti/ccs920/ccs/tools/compiler/ti-cgt-arm_18.12.3.LTS/in
     700                            .dwattr $C$DW$T$73, DW_AT_decl_line(0x32)
     701                            .dwattr $C$DW$T$73, DW_AT_decl_column(0x18)
     702                    
     703                    $C$DW$T$74      .dwtag  DW_TAG_typedef
     704                            .dwattr $C$DW$T$74, DW_AT_name("__int_least32_t")
     705                            .dwattr $C$DW$T$74, DW_AT_type(*$C$DW$T$64)
     706                            .dwattr $C$DW$T$74, DW_AT_language(DW_LANG_C)
     707                            .dwattr $C$DW$T$74, DW_AT_decl_file("C:/ti/ccs920/ccs/tools/compiler/ti-cgt-arm_18.12.3.LTS/in
     708                            .dwattr $C$DW$T$74, DW_AT_decl_line(0x5a)
     709                            .dwattr $C$DW$T$74, DW_AT_decl_column(0x13)
     710                    
     711                    $C$DW$T$75      .dwtag  DW_TAG_typedef
     712                            .dwattr $C$DW$T$75, DW_AT_name("int_least32_t")
TI ARM Assembler PC v18.12.3 Wed Oct 30 15:48:47 2019

Copyright (c) 1996-2018 Texas Instruments Incorporated
main.asm                                                             PAGE   14

     713                            .dwattr $C$DW$T$75, DW_AT_type(*$C$DW$T$74)
     714                            .dwattr $C$DW$T$75, DW_AT_language(DW_LANG_C)
     715                            .dwattr $C$DW$T$75, DW_AT_decl_file("C:/ti/ccs920/ccs/tools/compiler/ti-cgt-arm_18.12.3.LTS/in
     716                            .dwattr $C$DW$T$75, DW_AT_decl_line(0x2a)
     717                            .dwattr $C$DW$T$75, DW_AT_decl_column(0x1a)
     718                    
     719                    $C$DW$T$76      .dwtag  DW_TAG_typedef
     720                            .dwattr $C$DW$T$76, DW_AT_name("__intfptr_t")
     721                            .dwattr $C$DW$T$76, DW_AT_type(*$C$DW$T$64)
     722                            .dwattr $C$DW$T$76, DW_AT_language(DW_LANG_C)
     723                            .dwattr $C$DW$T$76, DW_AT_decl_file("C:/ti/ccs920/ccs/tools/compiler/ti-cgt-arm_18.12.3.LTS/in
     724                            .dwattr $C$DW$T$76, DW_AT_decl_line(0x51)
     725                            .dwattr $C$DW$T$76, DW_AT_decl_column(0x13)
     726                    
     727                    $C$DW$T$77      .dwtag  DW_TAG_typedef
     728                            .dwattr $C$DW$T$77, DW_AT_name("__intptr_t")
     729                            .dwattr $C$DW$T$77, DW_AT_type(*$C$DW$T$64)
     730                            .dwattr $C$DW$T$77, DW_AT_language(DW_LANG_C)
     731                            .dwattr $C$DW$T$77, DW_AT_decl_file("C:/ti/ccs920/ccs/tools/compiler/ti-cgt-arm_18.12.3.LTS/in
     732                            .dwattr $C$DW$T$77, DW_AT_decl_line(0x53)
     733                            .dwattr $C$DW$T$77, DW_AT_decl_column(0x13)
     734                    
     735                    $C$DW$T$78      .dwtag  DW_TAG_typedef
     736                            .dwattr $C$DW$T$78, DW_AT_name("intptr_t")
     737                            .dwattr $C$DW$T$78, DW_AT_type(*$C$DW$T$77)
     738                            .dwattr $C$DW$T$78, DW_AT_language(DW_LANG_C)
     739                            .dwattr $C$DW$T$78, DW_AT_decl_file("C:/ti/ccs920/ccs/tools/compiler/ti-cgt-arm_18.12.3.LTS/in
     740                            .dwattr $C$DW$T$78, DW_AT_decl_line(0x50)
     741                            .dwattr $C$DW$T$78, DW_AT_decl_column(0x15)
     742                    
     743                    $C$DW$T$79      .dwtag  DW_TAG_typedef
     744                            .dwattr $C$DW$T$79, DW_AT_name("__lwpid_t")
     745                            .dwattr $C$DW$T$79, DW_AT_type(*$C$DW$T$64)
     746                            .dwattr $C$DW$T$79, DW_AT_language(DW_LANG_C)
     747                            .dwattr $C$DW$T$79, DW_AT_decl_file("C:/ti/ccs920/ccs/tools/compiler/ti-cgt-arm_18.12.3.LTS/in
     748                            .dwattr $C$DW$T$79, DW_AT_decl_line(0x38)
     749                            .dwattr $C$DW$T$79, DW_AT_decl_column(0x13)
     750                    
     751                    $C$DW$T$80      .dwtag  DW_TAG_typedef
     752                            .dwattr $C$DW$T$80, DW_AT_name("__pid_t")
     753                            .dwattr $C$DW$T$80, DW_AT_type(*$C$DW$T$64)
     754                            .dwattr $C$DW$T$80, DW_AT_language(DW_LANG_C)
     755                            .dwattr $C$DW$T$80, DW_AT_decl_file("C:/ti/ccs920/ccs/tools/compiler/ti-cgt-arm_18.12.3.LTS/in
     756                            .dwattr $C$DW$T$80, DW_AT_decl_line(0x3f)
     757                            .dwattr $C$DW$T$80, DW_AT_decl_column(0x13)
     758                    
     759                    $C$DW$T$81      .dwtag  DW_TAG_typedef
     760                            .dwattr $C$DW$T$81, DW_AT_name("__ptrdiff_t")
     761                            .dwattr $C$DW$T$81, DW_AT_type(*$C$DW$T$64)
     762                            .dwattr $C$DW$T$81, DW_AT_language(DW_LANG_C)
     763                            .dwattr $C$DW$T$81, DW_AT_decl_file("C:/ti/ccs920/ccs/tools/compiler/ti-cgt-arm_18.12.3.LTS/in
     764                            .dwattr $C$DW$T$81, DW_AT_decl_line(0x5c)
     765                            .dwattr $C$DW$T$81, DW_AT_decl_column(0x13)
     766                    
     767                    $C$DW$T$82      .dwtag  DW_TAG_typedef
TI ARM Assembler PC v18.12.3 Wed Oct 30 15:48:47 2019

Copyright (c) 1996-2018 Texas Instruments Incorporated
main.asm                                                             PAGE   15

     768                            .dwattr $C$DW$T$82, DW_AT_name("__register_t")
     769                            .dwattr $C$DW$T$82, DW_AT_type(*$C$DW$T$64)
     770                            .dwattr $C$DW$T$82, DW_AT_language(DW_LANG_C)
     771                            .dwattr $C$DW$T$82, DW_AT_decl_file("C:/ti/ccs920/ccs/tools/compiler/ti-cgt-arm_18.12.3.LTS/in
     772                            .dwattr $C$DW$T$82, DW_AT_decl_line(0x5d)
     773                            .dwattr $C$DW$T$82, DW_AT_decl_column(0x13)
     774                    
     775                    $C$DW$T$83      .dwtag  DW_TAG_typedef
     776                            .dwattr $C$DW$T$83, DW_AT_name("__segsz_t")
     777                            .dwattr $C$DW$T$83, DW_AT_type(*$C$DW$T$64)
     778                            .dwattr $C$DW$T$83, DW_AT_language(DW_LANG_C)
     779                            .dwattr $C$DW$T$83, DW_AT_decl_file("C:/ti/ccs920/ccs/tools/compiler/ti-cgt-arm_18.12.3.LTS/in
     780                            .dwattr $C$DW$T$83, DW_AT_decl_line(0x5e)
     781                            .dwattr $C$DW$T$83, DW_AT_decl_column(0x13)
     782                    
     783                    $C$DW$T$84      .dwtag  DW_TAG_typedef
     784                            .dwattr $C$DW$T$84, DW_AT_name("__ssize_t")
     785                            .dwattr $C$DW$T$84, DW_AT_type(*$C$DW$T$64)
     786                            .dwattr $C$DW$T$84, DW_AT_language(DW_LANG_C)
     787                            .dwattr $C$DW$T$84, DW_AT_decl_file("C:/ti/ccs920/ccs/tools/compiler/ti-cgt-arm_18.12.3.LTS/in
     788                            .dwattr $C$DW$T$84, DW_AT_decl_line(0x60)
     789                            .dwattr $C$DW$T$84, DW_AT_decl_column(0x13)
     790                    
     791                    $C$DW$T$85      .dwtag  DW_TAG_typedef
     792                            .dwattr $C$DW$T$85, DW_AT_name("int32_t")
     793                            .dwattr $C$DW$T$85, DW_AT_type(*$C$DW$T$64)
     794                            .dwattr $C$DW$T$85, DW_AT_language(DW_LANG_C)
     795                            .dwattr $C$DW$T$85, DW_AT_decl_file("C:/ti/ccs920/ccs/tools/compiler/ti-cgt-arm_18.12.3.LTS/in
     796                            .dwattr $C$DW$T$85, DW_AT_decl_line(0x30)
     797                            .dwattr $C$DW$T$85, DW_AT_decl_column(0x14)
     798                    
     799                    $C$DW$T$86      .dwtag  DW_TAG_typedef
     800                            .dwattr $C$DW$T$86, DW_AT_name("__nl_item")
     801                            .dwattr $C$DW$T$86, DW_AT_type(*$C$DW$T$10)
     802                            .dwattr $C$DW$T$86, DW_AT_language(DW_LANG_C)
     803                            .dwattr $C$DW$T$86, DW_AT_decl_file("C:/ti/ccs920/ccs/tools/compiler/ti-cgt-arm_18.12.3.LTS/in
     804                            .dwattr $C$DW$T$86, DW_AT_decl_line(0x3b)
     805                            .dwattr $C$DW$T$86, DW_AT_decl_column(0x0e)
     806                    
     807                    $C$DW$T$11      .dwtag  DW_TAG_base_type
     808                            .dwattr $C$DW$T$11, DW_AT_encoding(DW_ATE_unsigned)
     809                            .dwattr $C$DW$T$11, DW_AT_name("unsigned int")
     810                            .dwattr $C$DW$T$11, DW_AT_byte_size(0x04)
     811                    
     812                    $C$DW$T$24      .dwtag  DW_TAG_typedef
     813                            .dwattr $C$DW$T$24, DW_AT_name("__uint32_t")
     814                            .dwattr $C$DW$T$24, DW_AT_type(*$C$DW$T$11)
     815                            .dwattr $C$DW$T$24, DW_AT_language(DW_LANG_C)
     816                            .dwattr $C$DW$T$24, DW_AT_decl_file("C:/ti/ccs920/ccs/tools/compiler/ti-cgt-arm_18.12.3.LTS/in
     817                            .dwattr $C$DW$T$24, DW_AT_decl_line(0x3e)
     818                            .dwattr $C$DW$T$24, DW_AT_decl_column(0x17)
     819                    
     820                    $C$DW$T$88      .dwtag  DW_TAG_typedef
     821                            .dwattr $C$DW$T$88, DW_AT_name("__clock_t")
     822                            .dwattr $C$DW$T$88, DW_AT_type(*$C$DW$T$24)
TI ARM Assembler PC v18.12.3 Wed Oct 30 15:48:47 2019

Copyright (c) 1996-2018 Texas Instruments Incorporated
main.asm                                                             PAGE   16

     823                            .dwattr $C$DW$T$88, DW_AT_language(DW_LANG_C)
     824                            .dwattr $C$DW$T$88, DW_AT_decl_file("C:/ti/ccs920/ccs/tools/compiler/ti-cgt-arm_18.12.3.LTS/in
     825                            .dwattr $C$DW$T$88, DW_AT_decl_line(0x4d)
     826                            .dwattr $C$DW$T$88, DW_AT_decl_column(0x14)
     827                    
     828                    $C$DW$T$89      .dwtag  DW_TAG_typedef
     829                            .dwattr $C$DW$T$89, DW_AT_name("__fflags_t")
     830                            .dwattr $C$DW$T$89, DW_AT_type(*$C$DW$T$24)
     831                            .dwattr $C$DW$T$89, DW_AT_language(DW_LANG_C)
     832                            .dwattr $C$DW$T$89, DW_AT_decl_file("C:/ti/ccs920/ccs/tools/compiler/ti-cgt-arm_18.12.3.LTS/in
     833                            .dwattr $C$DW$T$89, DW_AT_decl_line(0x31)
     834                            .dwattr $C$DW$T$89, DW_AT_decl_column(0x14)
     835                    
     836                    $C$DW$T$90      .dwtag  DW_TAG_typedef
     837                            .dwattr $C$DW$T$90, DW_AT_name("__fixpt_t")
     838                            .dwattr $C$DW$T$90, DW_AT_type(*$C$DW$T$24)
     839                            .dwattr $C$DW$T$90, DW_AT_language(DW_LANG_C)
     840                            .dwattr $C$DW$T$90, DW_AT_decl_file("C:/ti/ccs920/ccs/tools/compiler/ti-cgt-arm_18.12.3.LTS/in
     841                            .dwattr $C$DW$T$90, DW_AT_decl_line(0x80)
     842                            .dwattr $C$DW$T$90, DW_AT_decl_column(0x14)
     843                    
     844                    $C$DW$T$91      .dwtag  DW_TAG_typedef
     845                            .dwattr $C$DW$T$91, DW_AT_name("__gid_t")
     846                            .dwattr $C$DW$T$91, DW_AT_type(*$C$DW$T$24)
     847                            .dwattr $C$DW$T$91, DW_AT_language(DW_LANG_C)
     848                            .dwattr $C$DW$T$91, DW_AT_decl_file("C:/ti/ccs920/ccs/tools/compiler/ti-cgt-arm_18.12.3.LTS/in
     849                            .dwattr $C$DW$T$91, DW_AT_decl_line(0x34)
     850                            .dwattr $C$DW$T$91, DW_AT_decl_column(0x14)
     851                    
     852                    $C$DW$T$92      .dwtag  DW_TAG_typedef
     853                            .dwattr $C$DW$T$92, DW_AT_name("__size_t")
     854                            .dwattr $C$DW$T$92, DW_AT_type(*$C$DW$T$24)
     855                            .dwattr $C$DW$T$92, DW_AT_language(DW_LANG_C)
     856                            .dwattr $C$DW$T$92, DW_AT_decl_file("C:/ti/ccs920/ccs/tools/compiler/ti-cgt-arm_18.12.3.LTS/in
     857                            .dwattr $C$DW$T$92, DW_AT_decl_line(0x5f)
     858                            .dwattr $C$DW$T$92, DW_AT_decl_column(0x14)
     859                    
     860                    $C$DW$T$93      .dwtag  DW_TAG_typedef
     861                            .dwattr $C$DW$T$93, DW_AT_name("__socklen_t")
     862                            .dwattr $C$DW$T$93, DW_AT_type(*$C$DW$T$24)
     863                            .dwattr $C$DW$T$93, DW_AT_language(DW_LANG_C)
     864                            .dwattr $C$DW$T$93, DW_AT_decl_file("C:/ti/ccs920/ccs/tools/compiler/ti-cgt-arm_18.12.3.LTS/in
     865                            .dwattr $C$DW$T$93, DW_AT_decl_line(0x48)
     866                            .dwattr $C$DW$T$93, DW_AT_decl_column(0x14)
     867                    
     868                    $C$DW$T$94      .dwtag  DW_TAG_typedef
     869                            .dwattr $C$DW$T$94, DW_AT_name("__time_t")
     870                            .dwattr $C$DW$T$94, DW_AT_type(*$C$DW$T$24)
     871                            .dwattr $C$DW$T$94, DW_AT_language(DW_LANG_C)
     872                            .dwattr $C$DW$T$94, DW_AT_decl_file("C:/ti/ccs920/ccs/tools/compiler/ti-cgt-arm_18.12.3.LTS/in
     873                            .dwattr $C$DW$T$94, DW_AT_decl_line(0x64)
     874                            .dwattr $C$DW$T$94, DW_AT_decl_column(0x19)
     875                    
     876                    $C$DW$T$95      .dwtag  DW_TAG_typedef
     877                            .dwattr $C$DW$T$95, DW_AT_name("__u_register_t")
TI ARM Assembler PC v18.12.3 Wed Oct 30 15:48:47 2019

Copyright (c) 1996-2018 Texas Instruments Incorporated
main.asm                                                             PAGE   17

     878                            .dwattr $C$DW$T$95, DW_AT_type(*$C$DW$T$24)
     879                            .dwattr $C$DW$T$95, DW_AT_language(DW_LANG_C)
     880                            .dwattr $C$DW$T$95, DW_AT_decl_file("C:/ti/ccs920/ccs/tools/compiler/ti-cgt-arm_18.12.3.LTS/in
     881                            .dwattr $C$DW$T$95, DW_AT_decl_line(0x71)
     882                            .dwattr $C$DW$T$95, DW_AT_decl_column(0x14)
     883                    
     884                    $C$DW$T$96      .dwtag  DW_TAG_typedef
     885                            .dwattr $C$DW$T$96, DW_AT_name("__uid_t")
     886                            .dwattr $C$DW$T$96, DW_AT_type(*$C$DW$T$24)
     887                            .dwattr $C$DW$T$96, DW_AT_language(DW_LANG_C)
     888                            .dwattr $C$DW$T$96, DW_AT_decl_file("C:/ti/ccs920/ccs/tools/compiler/ti-cgt-arm_18.12.3.LTS/in
     889                            .dwattr $C$DW$T$96, DW_AT_decl_line(0x4c)
     890                            .dwattr $C$DW$T$96, DW_AT_decl_column(0x14)
     891                    
     892                    $C$DW$T$97      .dwtag  DW_TAG_typedef
     893                            .dwattr $C$DW$T$97, DW_AT_name("__uint_fast16_t")
     894                            .dwattr $C$DW$T$97, DW_AT_type(*$C$DW$T$24)
     895                            .dwattr $C$DW$T$97, DW_AT_language(DW_LANG_C)
     896                            .dwattr $C$DW$T$97, DW_AT_decl_file("C:/ti/ccs920/ccs/tools/compiler/ti-cgt-arm_18.12.3.LTS/in
     897                            .dwattr $C$DW$T$97, DW_AT_decl_line(0x6a)
     898                            .dwattr $C$DW$T$97, DW_AT_decl_column(0x14)
     899                    
     900                    $C$DW$T$98      .dwtag  DW_TAG_typedef
     901                            .dwattr $C$DW$T$98, DW_AT_name("uint_fast16_t")
     902                            .dwattr $C$DW$T$98, DW_AT_type(*$C$DW$T$97)
     903                            .dwattr $C$DW$T$98, DW_AT_language(DW_LANG_C)
     904                            .dwattr $C$DW$T$98, DW_AT_decl_file("C:/ti/ccs920/ccs/tools/compiler/ti-cgt-arm_18.12.3.LTS/in
     905                            .dwattr $C$DW$T$98, DW_AT_decl_line(0x38)
     906                            .dwattr $C$DW$T$98, DW_AT_decl_column(0x1a)
     907                    
     908                    $C$DW$T$99      .dwtag  DW_TAG_typedef
     909                            .dwattr $C$DW$T$99, DW_AT_name("__uint_fast32_t")
     910                            .dwattr $C$DW$T$99, DW_AT_type(*$C$DW$T$24)
     911                            .dwattr $C$DW$T$99, DW_AT_language(DW_LANG_C)
     912                            .dwattr $C$DW$T$99, DW_AT_decl_file("C:/ti/ccs920/ccs/tools/compiler/ti-cgt-arm_18.12.3.LTS/in
     913                            .dwattr $C$DW$T$99, DW_AT_decl_line(0x6b)
     914                            .dwattr $C$DW$T$99, DW_AT_decl_column(0x14)
     915                    
     916                    $C$DW$T$100     .dwtag  DW_TAG_typedef
     917                            .dwattr $C$DW$T$100, DW_AT_name("uint_fast32_t")
     918                            .dwattr $C$DW$T$100, DW_AT_type(*$C$DW$T$99)
     919                            .dwattr $C$DW$T$100, DW_AT_language(DW_LANG_C)
     920                            .dwattr $C$DW$T$100, DW_AT_decl_file("C:/ti/ccs920/ccs/tools/compiler/ti-cgt-arm_18.12.3.LTS/i
     921                            .dwattr $C$DW$T$100, DW_AT_decl_line(0x39)
     922                            .dwattr $C$DW$T$100, DW_AT_decl_column(0x1a)
     923                    
     924                    $C$DW$T$101     .dwtag  DW_TAG_typedef
     925                            .dwattr $C$DW$T$101, DW_AT_name("__uint_fast8_t")
     926                            .dwattr $C$DW$T$101, DW_AT_type(*$C$DW$T$24)
     927                            .dwattr $C$DW$T$101, DW_AT_language(DW_LANG_C)
     928                            .dwattr $C$DW$T$101, DW_AT_decl_file("C:/ti/ccs920/ccs/tools/compiler/ti-cgt-arm_18.12.3.LTS/i
     929                            .dwattr $C$DW$T$101, DW_AT_decl_line(0x69)
     930                            .dwattr $C$DW$T$101, DW_AT_decl_column(0x14)
     931                    
     932                    $C$DW$T$102     .dwtag  DW_TAG_typedef
TI ARM Assembler PC v18.12.3 Wed Oct 30 15:48:47 2019

Copyright (c) 1996-2018 Texas Instruments Incorporated
main.asm                                                             PAGE   18

     933                            .dwattr $C$DW$T$102, DW_AT_name("uint_fast8_t")
     934                            .dwattr $C$DW$T$102, DW_AT_type(*$C$DW$T$101)
     935                            .dwattr $C$DW$T$102, DW_AT_language(DW_LANG_C)
     936                            .dwattr $C$DW$T$102, DW_AT_decl_file("C:/ti/ccs920/ccs/tools/compiler/ti-cgt-arm_18.12.3.LTS/i
     937                            .dwattr $C$DW$T$102, DW_AT_decl_line(0x37)
     938                            .dwattr $C$DW$T$102, DW_AT_decl_column(0x19)
     939                    
     940                    $C$DW$T$103     .dwtag  DW_TAG_typedef
     941                            .dwattr $C$DW$T$103, DW_AT_name("__uint_least32_t")
     942                            .dwattr $C$DW$T$103, DW_AT_type(*$C$DW$T$24)
     943                            .dwattr $C$DW$T$103, DW_AT_language(DW_LANG_C)
     944                            .dwattr $C$DW$T$103, DW_AT_decl_file("C:/ti/ccs920/ccs/tools/compiler/ti-cgt-arm_18.12.3.LTS/i
     945                            .dwattr $C$DW$T$103, DW_AT_decl_line(0x6f)
     946                            .dwattr $C$DW$T$103, DW_AT_decl_column(0x14)
     947                    
     948                    $C$DW$T$104     .dwtag  DW_TAG_typedef
     949                            .dwattr $C$DW$T$104, DW_AT_name("__char32_t")
     950                            .dwattr $C$DW$T$104, DW_AT_type(*$C$DW$T$103)
     951                            .dwattr $C$DW$T$104, DW_AT_language(DW_LANG_C)
     952                            .dwattr $C$DW$T$104, DW_AT_decl_file("C:/ti/ccs920/ccs/tools/compiler/ti-cgt-arm_18.12.3.LTS/i
     953                            .dwattr $C$DW$T$104, DW_AT_decl_line(0x71)
     954                            .dwattr $C$DW$T$104, DW_AT_decl_column(0x1a)
     955                    
     956                    $C$DW$T$105     .dwtag  DW_TAG_typedef
     957                            .dwattr $C$DW$T$105, DW_AT_name("uint_least32_t")
     958                            .dwattr $C$DW$T$105, DW_AT_type(*$C$DW$T$103)
     959                            .dwattr $C$DW$T$105, DW_AT_language(DW_LANG_C)
     960                            .dwattr $C$DW$T$105, DW_AT_decl_file("C:/ti/ccs920/ccs/tools/compiler/ti-cgt-arm_18.12.3.LTS/i
     961                            .dwattr $C$DW$T$105, DW_AT_decl_line(0x2f)
     962                            .dwattr $C$DW$T$105, DW_AT_decl_column(0x1a)
     963                    
     964                    $C$DW$T$106     .dwtag  DW_TAG_typedef
     965                            .dwattr $C$DW$T$106, DW_AT_name("__uintfptr_t")
     966                            .dwattr $C$DW$T$106, DW_AT_type(*$C$DW$T$24)
     967                            .dwattr $C$DW$T$106, DW_AT_language(DW_LANG_C)
     968                            .dwattr $C$DW$T$106, DW_AT_decl_file("C:/ti/ccs920/ccs/tools/compiler/ti-cgt-arm_18.12.3.LTS/i
     969                            .dwattr $C$DW$T$106, DW_AT_decl_line(0x66)
     970                            .dwattr $C$DW$T$106, DW_AT_decl_column(0x14)
     971                    
     972                    $C$DW$T$107     .dwtag  DW_TAG_typedef
     973                            .dwattr $C$DW$T$107, DW_AT_name("__uintptr_t")
     974                            .dwattr $C$DW$T$107, DW_AT_type(*$C$DW$T$24)
     975                            .dwattr $C$DW$T$107, DW_AT_language(DW_LANG_C)
     976                            .dwattr $C$DW$T$107, DW_AT_decl_file("C:/ti/ccs920/ccs/tools/compiler/ti-cgt-arm_18.12.3.LTS/i
     977                            .dwattr $C$DW$T$107, DW_AT_decl_line(0x68)
     978                            .dwattr $C$DW$T$107, DW_AT_decl_column(0x14)
     979                    
     980                    $C$DW$T$108     .dwtag  DW_TAG_typedef
     981                            .dwattr $C$DW$T$108, DW_AT_name("uintptr_t")
     982                            .dwattr $C$DW$T$108, DW_AT_type(*$C$DW$T$107)
     983                            .dwattr $C$DW$T$108, DW_AT_language(DW_LANG_C)
     984                            .dwattr $C$DW$T$108, DW_AT_decl_file("C:/ti/ccs920/ccs/tools/compiler/ti-cgt-arm_18.12.3.LTS/i
     985                            .dwattr $C$DW$T$108, DW_AT_decl_line(0x54)
     986                            .dwattr $C$DW$T$108, DW_AT_decl_column(0x16)
     987                    
TI ARM Assembler PC v18.12.3 Wed Oct 30 15:48:47 2019

Copyright (c) 1996-2018 Texas Instruments Incorporated
main.asm                                                             PAGE   19

     988                    $C$DW$T$109     .dwtag  DW_TAG_typedef
     989                            .dwattr $C$DW$T$109, DW_AT_name("__vm_offset_t")
     990                            .dwattr $C$DW$T$109, DW_AT_type(*$C$DW$T$24)
     991                            .dwattr $C$DW$T$109, DW_AT_language(DW_LANG_C)
     992                            .dwattr $C$DW$T$109, DW_AT_decl_file("C:/ti/ccs920/ccs/tools/compiler/ti-cgt-arm_18.12.3.LTS/i
     993                            .dwattr $C$DW$T$109, DW_AT_decl_line(0x72)
     994                            .dwattr $C$DW$T$109, DW_AT_decl_column(0x14)
     995                    
     996                    $C$DW$T$110     .dwtag  DW_TAG_typedef
     997                            .dwattr $C$DW$T$110, DW_AT_name("__vm_paddr_t")
     998                            .dwattr $C$DW$T$110, DW_AT_type(*$C$DW$T$24)
     999                            .dwattr $C$DW$T$110, DW_AT_language(DW_LANG_C)
    1000                            .dwattr $C$DW$T$110, DW_AT_decl_file("C:/ti/ccs920/ccs/tools/compiler/ti-cgt-arm_18.12.3.LTS/i
    1001                            .dwattr $C$DW$T$110, DW_AT_decl_line(0x73)
    1002                            .dwattr $C$DW$T$110, DW_AT_decl_column(0x14)
    1003                    
    1004                    $C$DW$T$111     .dwtag  DW_TAG_typedef
    1005                            .dwattr $C$DW$T$111, DW_AT_name("__vm_size_t")
    1006                            .dwattr $C$DW$T$111, DW_AT_type(*$C$DW$T$24)
    1007                            .dwattr $C$DW$T$111, DW_AT_language(DW_LANG_C)
    1008                            .dwattr $C$DW$T$111, DW_AT_decl_file("C:/ti/ccs920/ccs/tools/compiler/ti-cgt-arm_18.12.3.LTS/i
    1009                            .dwattr $C$DW$T$111, DW_AT_decl_line(0x74)
    1010                            .dwattr $C$DW$T$111, DW_AT_decl_column(0x14)
    1011                    
    1012                    $C$DW$T$25      .dwtag  DW_TAG_typedef
    1013                            .dwattr $C$DW$T$25, DW_AT_name("uint32_t")
    1014                            .dwattr $C$DW$T$25, DW_AT_type(*$C$DW$T$24)
    1015                            .dwattr $C$DW$T$25, DW_AT_language(DW_LANG_C)
    1016                            .dwattr $C$DW$T$25, DW_AT_decl_file("C:/ti/ccs920/ccs/tools/compiler/ti-cgt-arm_18.12.3.LTS/in
    1017                            .dwattr $C$DW$T$25, DW_AT_decl_line(0x46)
    1018                            .dwattr $C$DW$T$25, DW_AT_decl_column(0x15)
    1019                    
    1020                    $C$DW$T$112     .dwtag  DW_TAG_volatile_type
    1021                            .dwattr $C$DW$T$112, DW_AT_type(*$C$DW$T$25)
    1022                    
    1023                    $C$DW$T$113     .dwtag  DW_TAG_typedef
    1024                            .dwattr $C$DW$T$113, DW_AT_name("__useconds_t")
    1025                            .dwattr $C$DW$T$113, DW_AT_type(*$C$DW$T$11)
    1026                            .dwattr $C$DW$T$113, DW_AT_language(DW_LANG_C)
    1027                            .dwattr $C$DW$T$113, DW_AT_decl_file("C:/ti/ccs920/ccs/tools/compiler/ti-cgt-arm_18.12.3.LTS/i
    1028                            .dwattr $C$DW$T$113, DW_AT_decl_line(0x4d)
    1029                            .dwattr $C$DW$T$113, DW_AT_decl_column(0x16)
    1030                    
    1031                    $C$DW$T$12      .dwtag  DW_TAG_base_type
    1032                            .dwattr $C$DW$T$12, DW_AT_encoding(DW_ATE_signed)
    1033                            .dwattr $C$DW$T$12, DW_AT_name("long")
    1034                            .dwattr $C$DW$T$12, DW_AT_byte_size(0x04)
    1035                    
    1036                    $C$DW$T$114     .dwtag  DW_TAG_typedef
    1037                            .dwattr $C$DW$T$114, DW_AT_name("__key_t")
    1038                            .dwattr $C$DW$T$114, DW_AT_type(*$C$DW$T$12)
    1039                            .dwattr $C$DW$T$114, DW_AT_language(DW_LANG_C)
    1040                            .dwattr $C$DW$T$114, DW_AT_decl_file("C:/ti/ccs920/ccs/tools/compiler/ti-cgt-arm_18.12.3.LTS/i
    1041                            .dwattr $C$DW$T$114, DW_AT_decl_line(0x37)
    1042                            .dwattr $C$DW$T$114, DW_AT_decl_column(0x0f)
TI ARM Assembler PC v18.12.3 Wed Oct 30 15:48:47 2019

Copyright (c) 1996-2018 Texas Instruments Incorporated
main.asm                                                             PAGE   20

    1043                    
    1044                    $C$DW$T$115     .dwtag  DW_TAG_typedef
    1045                            .dwattr $C$DW$T$115, DW_AT_name("__suseconds_t")
    1046                            .dwattr $C$DW$T$115, DW_AT_type(*$C$DW$T$12)
    1047                            .dwattr $C$DW$T$115, DW_AT_language(DW_LANG_C)
    1048                            .dwattr $C$DW$T$115, DW_AT_decl_file("C:/ti/ccs920/ccs/tools/compiler/ti-cgt-arm_18.12.3.LTS/i
    1049                            .dwattr $C$DW$T$115, DW_AT_decl_line(0x49)
    1050                            .dwattr $C$DW$T$115, DW_AT_decl_column(0x0f)
    1051                    
    1052                    $C$DW$T$13      .dwtag  DW_TAG_base_type
    1053                            .dwattr $C$DW$T$13, DW_AT_encoding(DW_ATE_unsigned)
    1054                            .dwattr $C$DW$T$13, DW_AT_name("unsigned long")
    1055                            .dwattr $C$DW$T$13, DW_AT_byte_size(0x04)
    1056                    
    1057                    $C$DW$T$14      .dwtag  DW_TAG_base_type
    1058                            .dwattr $C$DW$T$14, DW_AT_encoding(DW_ATE_signed)
    1059                            .dwattr $C$DW$T$14, DW_AT_name("long long")
    1060                            .dwattr $C$DW$T$14, DW_AT_byte_size(0x08)
    1061                    
    1062                    $C$DW$T$116     .dwtag  DW_TAG_typedef
    1063                            .dwattr $C$DW$T$116, DW_AT_name("__int64_t")
    1064                            .dwattr $C$DW$T$116, DW_AT_type(*$C$DW$T$14)
    1065                            .dwattr $C$DW$T$116, DW_AT_language(DW_LANG_C)
    1066                            .dwattr $C$DW$T$116, DW_AT_decl_file("C:/ti/ccs920/ccs/tools/compiler/ti-cgt-arm_18.12.3.LTS/i
    1067                            .dwattr $C$DW$T$116, DW_AT_decl_line(0x43)
    1068                            .dwattr $C$DW$T$116, DW_AT_decl_column(0x14)
    1069                    
    1070                    $C$DW$T$117     .dwtag  DW_TAG_typedef
    1071                            .dwattr $C$DW$T$117, DW_AT_name("__blkcnt_t")
    1072                            .dwattr $C$DW$T$117, DW_AT_type(*$C$DW$T$116)
    1073                            .dwattr $C$DW$T$117, DW_AT_language(DW_LANG_C)
    1074                            .dwattr $C$DW$T$117, DW_AT_decl_file("C:/ti/ccs920/ccs/tools/compiler/ti-cgt-arm_18.12.3.LTS/i
    1075                            .dwattr $C$DW$T$117, DW_AT_decl_line(0x2f)
    1076                            .dwattr $C$DW$T$117, DW_AT_decl_column(0x13)
    1077                    
    1078                    $C$DW$T$118     .dwtag  DW_TAG_typedef
    1079                            .dwattr $C$DW$T$118, DW_AT_name("__id_t")
    1080                            .dwattr $C$DW$T$118, DW_AT_type(*$C$DW$T$116)
    1081                            .dwattr $C$DW$T$118, DW_AT_language(DW_LANG_C)
    1082                            .dwattr $C$DW$T$118, DW_AT_decl_file("C:/ti/ccs920/ccs/tools/compiler/ti-cgt-arm_18.12.3.LTS/i
    1083                            .dwattr $C$DW$T$118, DW_AT_decl_line(0x35)
    1084                            .dwattr $C$DW$T$118, DW_AT_decl_column(0x13)
    1085                    
    1086                    $C$DW$T$119     .dwtag  DW_TAG_typedef
    1087                            .dwattr $C$DW$T$119, DW_AT_name("__int_fast64_t")
    1088                            .dwattr $C$DW$T$119, DW_AT_type(*$C$DW$T$116)
    1089                            .dwattr $C$DW$T$119, DW_AT_language(DW_LANG_C)
    1090                            .dwattr $C$DW$T$119, DW_AT_decl_file("C:/ti/ccs920/ccs/tools/compiler/ti-cgt-arm_18.12.3.LTS/i
    1091                            .dwattr $C$DW$T$119, DW_AT_decl_line(0x57)
    1092                            .dwattr $C$DW$T$119, DW_AT_decl_column(0x13)
    1093                    
    1094                    $C$DW$T$120     .dwtag  DW_TAG_typedef
    1095                            .dwattr $C$DW$T$120, DW_AT_name("int_fast64_t")
    1096                            .dwattr $C$DW$T$120, DW_AT_type(*$C$DW$T$119)
    1097                            .dwattr $C$DW$T$120, DW_AT_language(DW_LANG_C)
TI ARM Assembler PC v18.12.3 Wed Oct 30 15:48:47 2019

Copyright (c) 1996-2018 Texas Instruments Incorporated
main.asm                                                             PAGE   21

    1098                            .dwattr $C$DW$T$120, DW_AT_decl_file("C:/ti/ccs920/ccs/tools/compiler/ti-cgt-arm_18.12.3.LTS/i
    1099                            .dwattr $C$DW$T$120, DW_AT_decl_line(0x35)
    1100                            .dwattr $C$DW$T$120, DW_AT_decl_column(0x19)
    1101                    
    1102                    $C$DW$T$121     .dwtag  DW_TAG_typedef
    1103                            .dwattr $C$DW$T$121, DW_AT_name("__int_least64_t")
    1104                            .dwattr $C$DW$T$121, DW_AT_type(*$C$DW$T$116)
    1105                            .dwattr $C$DW$T$121, DW_AT_language(DW_LANG_C)
    1106                            .dwattr $C$DW$T$121, DW_AT_decl_file("C:/ti/ccs920/ccs/tools/compiler/ti-cgt-arm_18.12.3.LTS/i
    1107                            .dwattr $C$DW$T$121, DW_AT_decl_line(0x5b)
    1108                            .dwattr $C$DW$T$121, DW_AT_decl_column(0x13)
    1109                    
    1110                    $C$DW$T$122     .dwtag  DW_TAG_typedef
    1111                            .dwattr $C$DW$T$122, DW_AT_name("int_least64_t")
    1112                            .dwattr $C$DW$T$122, DW_AT_type(*$C$DW$T$121)
    1113                            .dwattr $C$DW$T$122, DW_AT_language(DW_LANG_C)
    1114                            .dwattr $C$DW$T$122, DW_AT_decl_file("C:/ti/ccs920/ccs/tools/compiler/ti-cgt-arm_18.12.3.LTS/i
    1115                            .dwattr $C$DW$T$122, DW_AT_decl_line(0x2b)
    1116                            .dwattr $C$DW$T$122, DW_AT_decl_column(0x1a)
    1117                    
    1118                    $C$DW$T$123     .dwtag  DW_TAG_typedef
    1119                            .dwattr $C$DW$T$123, DW_AT_name("__intmax_t")
    1120                            .dwattr $C$DW$T$123, DW_AT_type(*$C$DW$T$116)
    1121                            .dwattr $C$DW$T$123, DW_AT_language(DW_LANG_C)
    1122                            .dwattr $C$DW$T$123, DW_AT_decl_file("C:/ti/ccs920/ccs/tools/compiler/ti-cgt-arm_18.12.3.LTS/i
    1123                            .dwattr $C$DW$T$123, DW_AT_decl_line(0x52)
    1124                            .dwattr $C$DW$T$123, DW_AT_decl_column(0x13)
    1125                    
    1126                    $C$DW$T$124     .dwtag  DW_TAG_typedef
    1127                            .dwattr $C$DW$T$124, DW_AT_name("intmax_t")
    1128                            .dwattr $C$DW$T$124, DW_AT_type(*$C$DW$T$123)
    1129                            .dwattr $C$DW$T$124, DW_AT_language(DW_LANG_C)
    1130                            .dwattr $C$DW$T$124, DW_AT_decl_file("C:/ti/ccs920/ccs/tools/compiler/ti-cgt-arm_18.12.3.LTS/i
    1131                            .dwattr $C$DW$T$124, DW_AT_decl_line(0x58)
    1132                            .dwattr $C$DW$T$124, DW_AT_decl_column(0x15)
    1133                    
    1134                    $C$DW$T$125     .dwtag  DW_TAG_typedef
    1135                            .dwattr $C$DW$T$125, DW_AT_name("__off64_t")
    1136                            .dwattr $C$DW$T$125, DW_AT_type(*$C$DW$T$116)
    1137                            .dwattr $C$DW$T$125, DW_AT_language(DW_LANG_C)
    1138                            .dwattr $C$DW$T$125, DW_AT_decl_file("C:/ti/ccs920/ccs/tools/compiler/ti-cgt-arm_18.12.3.LTS/i
    1139                            .dwattr $C$DW$T$125, DW_AT_decl_line(0x3e)
    1140                            .dwattr $C$DW$T$125, DW_AT_decl_column(0x13)
    1141                    
    1142                    $C$DW$T$126     .dwtag  DW_TAG_typedef
    1143                            .dwattr $C$DW$T$126, DW_AT_name("__off_t")
    1144                            .dwattr $C$DW$T$126, DW_AT_type(*$C$DW$T$116)
    1145                            .dwattr $C$DW$T$126, DW_AT_language(DW_LANG_C)
    1146                            .dwattr $C$DW$T$126, DW_AT_decl_file("C:/ti/ccs920/ccs/tools/compiler/ti-cgt-arm_18.12.3.LTS/i
    1147                            .dwattr $C$DW$T$126, DW_AT_decl_line(0x3d)
    1148                            .dwattr $C$DW$T$126, DW_AT_decl_column(0x13)
    1149                    
    1150                    $C$DW$T$127     .dwtag  DW_TAG_typedef
    1151                            .dwattr $C$DW$T$127, DW_AT_name("__rlim_t")
    1152                            .dwattr $C$DW$T$127, DW_AT_type(*$C$DW$T$116)
TI ARM Assembler PC v18.12.3 Wed Oct 30 15:48:47 2019

Copyright (c) 1996-2018 Texas Instruments Incorporated
main.asm                                                             PAGE   22

    1153                            .dwattr $C$DW$T$127, DW_AT_language(DW_LANG_C)
    1154                            .dwattr $C$DW$T$127, DW_AT_decl_file("C:/ti/ccs920/ccs/tools/compiler/ti-cgt-arm_18.12.3.LTS/i
    1155                            .dwattr $C$DW$T$127, DW_AT_decl_line(0x40)
    1156                            .dwattr $C$DW$T$127, DW_AT_decl_column(0x13)
    1157                    
    1158                    $C$DW$T$128     .dwtag  DW_TAG_typedef
    1159                            .dwattr $C$DW$T$128, DW_AT_name("int64_t")
    1160                            .dwattr $C$DW$T$128, DW_AT_type(*$C$DW$T$116)
    1161                            .dwattr $C$DW$T$128, DW_AT_language(DW_LANG_C)
    1162                            .dwattr $C$DW$T$128, DW_AT_decl_file("C:/ti/ccs920/ccs/tools/compiler/ti-cgt-arm_18.12.3.LTS/i
    1163                            .dwattr $C$DW$T$128, DW_AT_decl_line(0x35)
    1164                            .dwattr $C$DW$T$128, DW_AT_decl_column(0x14)
    1165                    
    1166                    $C$DW$T$15      .dwtag  DW_TAG_base_type
    1167                            .dwattr $C$DW$T$15, DW_AT_encoding(DW_ATE_unsigned)
    1168                            .dwattr $C$DW$T$15, DW_AT_name("unsigned long long")
    1169                            .dwattr $C$DW$T$15, DW_AT_byte_size(0x08)
    1170                    
    1171                    $C$DW$T$129     .dwtag  DW_TAG_typedef
    1172                            .dwattr $C$DW$T$129, DW_AT_name("__uint64_t")
    1173                            .dwattr $C$DW$T$129, DW_AT_type(*$C$DW$T$15)
    1174                            .dwattr $C$DW$T$129, DW_AT_language(DW_LANG_C)
    1175                            .dwattr $C$DW$T$129, DW_AT_decl_file("C:/ti/ccs920/ccs/tools/compiler/ti-cgt-arm_18.12.3.LTS/i
    1176                            .dwattr $C$DW$T$129, DW_AT_decl_line(0x48)
    1177                            .dwattr $C$DW$T$129, DW_AT_decl_column(0x1c)
    1178                    
    1179                    $C$DW$T$130     .dwtag  DW_TAG_typedef
    1180                            .dwattr $C$DW$T$130, DW_AT_name("__dev_t")
    1181                            .dwattr $C$DW$T$130, DW_AT_type(*$C$DW$T$129)
    1182                            .dwattr $C$DW$T$130, DW_AT_language(DW_LANG_C)
    1183                            .dwattr $C$DW$T$130, DW_AT_decl_file("C:/ti/ccs920/ccs/tools/compiler/ti-cgt-arm_18.12.3.LTS/i
    1184                            .dwattr $C$DW$T$130, DW_AT_decl_line(0x7e)
    1185                            .dwattr $C$DW$T$130, DW_AT_decl_column(0x14)
    1186                    
    1187                    $C$DW$T$131     .dwtag  DW_TAG_typedef
    1188                            .dwattr $C$DW$T$131, DW_AT_name("__fsblkcnt_t")
    1189                            .dwattr $C$DW$T$131, DW_AT_type(*$C$DW$T$129)
    1190                            .dwattr $C$DW$T$131, DW_AT_language(DW_LANG_C)
    1191                            .dwattr $C$DW$T$131, DW_AT_decl_file("C:/ti/ccs920/ccs/tools/compiler/ti-cgt-arm_18.12.3.LTS/i
    1192                            .dwattr $C$DW$T$131, DW_AT_decl_line(0x32)
    1193                            .dwattr $C$DW$T$131, DW_AT_decl_column(0x14)
    1194                    
    1195                    $C$DW$T$132     .dwtag  DW_TAG_typedef
    1196                            .dwattr $C$DW$T$132, DW_AT_name("__fsfilcnt_t")
    1197                            .dwattr $C$DW$T$132, DW_AT_type(*$C$DW$T$129)
    1198                            .dwattr $C$DW$T$132, DW_AT_language(DW_LANG_C)
    1199                            .dwattr $C$DW$T$132, DW_AT_decl_file("C:/ti/ccs920/ccs/tools/compiler/ti-cgt-arm_18.12.3.LTS/i
    1200                            .dwattr $C$DW$T$132, DW_AT_decl_line(0x33)
    1201                            .dwattr $C$DW$T$132, DW_AT_decl_column(0x14)
    1202                    
    1203                    $C$DW$T$133     .dwtag  DW_TAG_typedef
    1204                            .dwattr $C$DW$T$133, DW_AT_name("__ino_t")
    1205                            .dwattr $C$DW$T$133, DW_AT_type(*$C$DW$T$129)
    1206                            .dwattr $C$DW$T$133, DW_AT_language(DW_LANG_C)
    1207                            .dwattr $C$DW$T$133, DW_AT_decl_file("C:/ti/ccs920/ccs/tools/compiler/ti-cgt-arm_18.12.3.LTS/i
TI ARM Assembler PC v18.12.3 Wed Oct 30 15:48:47 2019

Copyright (c) 1996-2018 Texas Instruments Incorporated
main.asm                                                             PAGE   23

    1208                            .dwattr $C$DW$T$133, DW_AT_decl_line(0x36)
    1209                            .dwattr $C$DW$T$133, DW_AT_decl_column(0x14)
    1210                    
    1211                    $C$DW$T$134     .dwtag  DW_TAG_typedef
    1212                            .dwattr $C$DW$T$134, DW_AT_name("__nlink_t")
    1213                            .dwattr $C$DW$T$134, DW_AT_type(*$C$DW$T$129)
    1214                            .dwattr $C$DW$T$134, DW_AT_language(DW_LANG_C)
    1215                            .dwattr $C$DW$T$134, DW_AT_decl_file("C:/ti/ccs920/ccs/tools/compiler/ti-cgt-arm_18.12.3.LTS/i
    1216                            .dwattr $C$DW$T$134, DW_AT_decl_line(0x3c)
    1217                            .dwattr $C$DW$T$134, DW_AT_decl_column(0x14)
    1218                    
    1219                    $C$DW$T$135     .dwtag  DW_TAG_typedef
    1220                            .dwattr $C$DW$T$135, DW_AT_name("__uint_fast64_t")
    1221                            .dwattr $C$DW$T$135, DW_AT_type(*$C$DW$T$129)
    1222                            .dwattr $C$DW$T$135, DW_AT_language(DW_LANG_C)
    1223                            .dwattr $C$DW$T$135, DW_AT_decl_file("C:/ti/ccs920/ccs/tools/compiler/ti-cgt-arm_18.12.3.LTS/i
    1224                            .dwattr $C$DW$T$135, DW_AT_decl_line(0x6c)
    1225                            .dwattr $C$DW$T$135, DW_AT_decl_column(0x14)
    1226                    
    1227                    $C$DW$T$136     .dwtag  DW_TAG_typedef
    1228                            .dwattr $C$DW$T$136, DW_AT_name("uint_fast64_t")
    1229                            .dwattr $C$DW$T$136, DW_AT_type(*$C$DW$T$135)
    1230                            .dwattr $C$DW$T$136, DW_AT_language(DW_LANG_C)
    1231                            .dwattr $C$DW$T$136, DW_AT_decl_file("C:/ti/ccs920/ccs/tools/compiler/ti-cgt-arm_18.12.3.LTS/i
    1232                            .dwattr $C$DW$T$136, DW_AT_decl_line(0x3a)
    1233                            .dwattr $C$DW$T$136, DW_AT_decl_column(0x1a)
    1234                    
    1235                    $C$DW$T$137     .dwtag  DW_TAG_typedef
    1236                            .dwattr $C$DW$T$137, DW_AT_name("__uint_least64_t")
    1237                            .dwattr $C$DW$T$137, DW_AT_type(*$C$DW$T$129)
    1238                            .dwattr $C$DW$T$137, DW_AT_language(DW_LANG_C)
    1239                            .dwattr $C$DW$T$137, DW_AT_decl_file("C:/ti/ccs920/ccs/tools/compiler/ti-cgt-arm_18.12.3.LTS/i
    1240                            .dwattr $C$DW$T$137, DW_AT_decl_line(0x70)
    1241                            .dwattr $C$DW$T$137, DW_AT_decl_column(0x14)
    1242                    
    1243                    $C$DW$T$138     .dwtag  DW_TAG_typedef
    1244                            .dwattr $C$DW$T$138, DW_AT_name("uint_least64_t")
    1245                            .dwattr $C$DW$T$138, DW_AT_type(*$C$DW$T$137)
    1246                            .dwattr $C$DW$T$138, DW_AT_language(DW_LANG_C)
    1247                            .dwattr $C$DW$T$138, DW_AT_decl_file("C:/ti/ccs920/ccs/tools/compiler/ti-cgt-arm_18.12.3.LTS/i
    1248                            .dwattr $C$DW$T$138, DW_AT_decl_line(0x30)
    1249                            .dwattr $C$DW$T$138, DW_AT_decl_column(0x1a)
    1250                    
    1251                    $C$DW$T$139     .dwtag  DW_TAG_typedef
    1252                            .dwattr $C$DW$T$139, DW_AT_name("__uintmax_t")
    1253                            .dwattr $C$DW$T$139, DW_AT_type(*$C$DW$T$129)
    1254                            .dwattr $C$DW$T$139, DW_AT_language(DW_LANG_C)
    1255                            .dwattr $C$DW$T$139, DW_AT_decl_file("C:/ti/ccs920/ccs/tools/compiler/ti-cgt-arm_18.12.3.LTS/i
    1256                            .dwattr $C$DW$T$139, DW_AT_decl_line(0x67)
    1257                            .dwattr $C$DW$T$139, DW_AT_decl_column(0x14)
    1258                    
    1259                    $C$DW$T$140     .dwtag  DW_TAG_typedef
    1260                            .dwattr $C$DW$T$140, DW_AT_name("__rman_res_t")
    1261                            .dwattr $C$DW$T$140, DW_AT_type(*$C$DW$T$139)
    1262                            .dwattr $C$DW$T$140, DW_AT_language(DW_LANG_C)
TI ARM Assembler PC v18.12.3 Wed Oct 30 15:48:47 2019

Copyright (c) 1996-2018 Texas Instruments Incorporated
main.asm                                                             PAGE   24

    1263                            .dwattr $C$DW$T$140, DW_AT_decl_file("C:/ti/ccs920/ccs/tools/compiler/ti-cgt-arm_18.12.3.LTS/i
    1264                            .dwattr $C$DW$T$140, DW_AT_decl_line(0x99)
    1265                            .dwattr $C$DW$T$140, DW_AT_decl_column(0x19)
    1266                    
    1267                    $C$DW$T$141     .dwtag  DW_TAG_typedef
    1268                            .dwattr $C$DW$T$141, DW_AT_name("uintmax_t")
    1269                            .dwattr $C$DW$T$141, DW_AT_type(*$C$DW$T$139)
    1270                            .dwattr $C$DW$T$141, DW_AT_language(DW_LANG_C)
    1271                            .dwattr $C$DW$T$141, DW_AT_decl_file("C:/ti/ccs920/ccs/tools/compiler/ti-cgt-arm_18.12.3.LTS/i
    1272                            .dwattr $C$DW$T$141, DW_AT_decl_line(0x5c)
    1273                            .dwattr $C$DW$T$141, DW_AT_decl_column(0x16)
    1274                    
    1275                    $C$DW$T$142     .dwtag  DW_TAG_typedef
    1276                            .dwattr $C$DW$T$142, DW_AT_name("uint64_t")
    1277                            .dwattr $C$DW$T$142, DW_AT_type(*$C$DW$T$129)
    1278                            .dwattr $C$DW$T$142, DW_AT_language(DW_LANG_C)
    1279                            .dwattr $C$DW$T$142, DW_AT_decl_file("C:/ti/ccs920/ccs/tools/compiler/ti-cgt-arm_18.12.3.LTS/i
    1280                            .dwattr $C$DW$T$142, DW_AT_decl_line(0x4b)
    1281                            .dwattr $C$DW$T$142, DW_AT_decl_column(0x15)
    1282                    
    1283                    $C$DW$T$16      .dwtag  DW_TAG_base_type
    1284                            .dwattr $C$DW$T$16, DW_AT_encoding(DW_ATE_float)
    1285                            .dwattr $C$DW$T$16, DW_AT_name("float")
    1286                            .dwattr $C$DW$T$16, DW_AT_byte_size(0x04)
    1287                    
    1288                    $C$DW$T$143     .dwtag  DW_TAG_typedef
    1289                            .dwattr $C$DW$T$143, DW_AT_name("__float_t")
    1290                            .dwattr $C$DW$T$143, DW_AT_type(*$C$DW$T$16)
    1291                            .dwattr $C$DW$T$143, DW_AT_language(DW_LANG_C)
    1292                            .dwattr $C$DW$T$143, DW_AT_decl_file("C:/ti/ccs920/ccs/tools/compiler/ti-cgt-arm_18.12.3.LTS/i
    1293                            .dwattr $C$DW$T$143, DW_AT_decl_line(0x50)
    1294                            .dwattr $C$DW$T$143, DW_AT_decl_column(0x10)
    1295                    
    1296                    $C$DW$T$17      .dwtag  DW_TAG_base_type
    1297                            .dwattr $C$DW$T$17, DW_AT_encoding(DW_ATE_float)
    1298                            .dwattr $C$DW$T$17, DW_AT_name("double")
    1299                            .dwattr $C$DW$T$17, DW_AT_byte_size(0x08)
    1300                    
    1301                    $C$DW$T$144     .dwtag  DW_TAG_typedef
    1302                            .dwattr $C$DW$T$144, DW_AT_name("__double_t")
    1303                            .dwattr $C$DW$T$144, DW_AT_type(*$C$DW$T$17)
    1304                            .dwattr $C$DW$T$144, DW_AT_language(DW_LANG_C)
    1305                            .dwattr $C$DW$T$144, DW_AT_decl_file("C:/ti/ccs920/ccs/tools/compiler/ti-cgt-arm_18.12.3.LTS/i
    1306                            .dwattr $C$DW$T$144, DW_AT_decl_line(0x4f)
    1307                            .dwattr $C$DW$T$144, DW_AT_decl_column(0x11)
    1308                    
    1309                    $C$DW$T$18      .dwtag  DW_TAG_base_type
    1310                            .dwattr $C$DW$T$18, DW_AT_encoding(DW_ATE_float)
    1311                            .dwattr $C$DW$T$18, DW_AT_name("long double")
    1312                            .dwattr $C$DW$T$18, DW_AT_byte_size(0x08)
    1313                    
    1314                    $C$DW$T$145     .dwtag  DW_TAG_base_type
    1315                            .dwattr $C$DW$T$145, DW_AT_encoding(DW_ATE_unsigned_char)
    1316                            .dwattr $C$DW$T$145, DW_AT_name("unsigned char")
    1317                            .dwattr $C$DW$T$145, DW_AT_byte_size(0x01)
TI ARM Assembler PC v18.12.3 Wed Oct 30 15:48:47 2019

Copyright (c) 1996-2018 Texas Instruments Incorporated
main.asm                                                             PAGE   25

    1318                    
    1319                    
    1320                    $C$DW$T$19      .dwtag  DW_TAG_structure_type
    1321                            .dwattr $C$DW$T$19, DW_AT_name("__mq")
    1322                            .dwattr $C$DW$T$19, DW_AT_declaration
    1323                            .dwattr $C$DW$T$19, DW_AT_decl_file("C:/ti/ccs920/ccs/tools/compiler/ti-cgt-arm_18.12.3.LTS/in
    1324                            .dwattr $C$DW$T$19, DW_AT_decl_line(0x4b)
    1325                            .dwattr $C$DW$T$19, DW_AT_decl_column(0x10)
    1326                            .dwendtag $C$DW$T$19
    1327                    
    1328                    $C$DW$T$147     .dwtag  DW_TAG_pointer_type
    1329                            .dwattr $C$DW$T$147, DW_AT_type(*$C$DW$T$19)
    1330                            .dwattr $C$DW$T$147, DW_AT_address_class(0x20)
    1331                    
    1332                    $C$DW$T$148     .dwtag  DW_TAG_typedef
    1333                            .dwattr $C$DW$T$148, DW_AT_name("__mqd_t")
    1334                            .dwattr $C$DW$T$148, DW_AT_type(*$C$DW$T$147)
    1335                            .dwattr $C$DW$T$148, DW_AT_language(DW_LANG_C)
    1336                            .dwattr $C$DW$T$148, DW_AT_decl_file("C:/ti/ccs920/ccs/tools/compiler/ti-cgt-arm_18.12.3.LTS/i
    1337                            .dwattr $C$DW$T$148, DW_AT_decl_line(0x4b)
    1338                            .dwattr $C$DW$T$148, DW_AT_decl_column(0x16)
    1339                    
    1340                    
    1341                    $C$DW$T$20      .dwtag  DW_TAG_structure_type
    1342                            .dwattr $C$DW$T$20, DW_AT_name("__timer")
    1343                            .dwattr $C$DW$T$20, DW_AT_declaration
    1344                            .dwattr $C$DW$T$20, DW_AT_decl_file("C:/ti/ccs920/ccs/tools/compiler/ti-cgt-arm_18.12.3.LTS/in
    1345                            .dwattr $C$DW$T$20, DW_AT_decl_line(0x4a)
    1346                            .dwattr $C$DW$T$20, DW_AT_decl_column(0x10)
    1347                            .dwendtag $C$DW$T$20
    1348                    
    1349                    $C$DW$T$149     .dwtag  DW_TAG_pointer_type
    1350                            .dwattr $C$DW$T$149, DW_AT_type(*$C$DW$T$20)
    1351                            .dwattr $C$DW$T$149, DW_AT_address_class(0x20)
    1352                    
    1353                    $C$DW$T$150     .dwtag  DW_TAG_typedef
    1354                            .dwattr $C$DW$T$150, DW_AT_name("__timer_t")
    1355                            .dwattr $C$DW$T$150, DW_AT_type(*$C$DW$T$149)
    1356                            .dwattr $C$DW$T$150, DW_AT_language(DW_LANG_C)
    1357                            .dwattr $C$DW$T$150, DW_AT_decl_file("C:/ti/ccs920/ccs/tools/compiler/ti-cgt-arm_18.12.3.LTS/i
    1358                            .dwattr $C$DW$T$150, DW_AT_decl_line(0x4a)
    1359                            .dwattr $C$DW$T$150, DW_AT_decl_column(0x19)
    1360                    
    1361                    
    1362                    $C$DW$T$22      .dwtag  DW_TAG_structure_type
    1363                            .dwattr $C$DW$T$22, DW_AT_name("__va_list_t")
    1364                            .dwattr $C$DW$T$22, DW_AT_byte_size(0x04)
    1365                    $C$DW$21        .dwtag  DW_TAG_member
    1366                            .dwattr $C$DW$21, DW_AT_type(*$C$DW$T$3)
    1367                            .dwattr $C$DW$21, DW_AT_name("__ap")
    1368                            .dwattr $C$DW$21, DW_AT_TI_symbol_name("__ap")
    1369                            .dwattr $C$DW$21, DW_AT_data_member_location[DW_OP_plus_uconst 0x0]
    1370                            .dwattr $C$DW$21, DW_AT_accessibility(DW_ACCESS_public)
    1371                            .dwattr $C$DW$21, DW_AT_decl_file("C:/ti/ccs920/ccs/tools/compiler/ti-cgt-arm_18.12.3.LTS/incl
    1372                            .dwattr $C$DW$21, DW_AT_decl_line(0x8c)
TI ARM Assembler PC v18.12.3 Wed Oct 30 15:48:47 2019

Copyright (c) 1996-2018 Texas Instruments Incorporated
main.asm                                                             PAGE   26

    1373                            .dwattr $C$DW$21, DW_AT_decl_column(0x0c)
    1374                    
    1375                            .dwattr $C$DW$T$22, DW_AT_decl_file("C:/ti/ccs920/ccs/tools/compiler/ti-cgt-arm_18.12.3.LTS/in
    1376                            .dwattr $C$DW$T$22, DW_AT_decl_line(0x8b)
    1377                            .dwattr $C$DW$T$22, DW_AT_decl_column(0x10)
    1378                            .dwendtag $C$DW$T$22
    1379                    
    1380                    $C$DW$T$151     .dwtag  DW_TAG_typedef
    1381                            .dwattr $C$DW$T$151, DW_AT_name("__va_list")
    1382                            .dwattr $C$DW$T$151, DW_AT_type(*$C$DW$T$22)
    1383                            .dwattr $C$DW$T$151, DW_AT_language(DW_LANG_C)
    1384                            .dwattr $C$DW$T$151, DW_AT_decl_file("C:/ti/ccs920/ccs/tools/compiler/ti-cgt-arm_18.12.3.LTS/i
    1385                            .dwattr $C$DW$T$151, DW_AT_decl_line(0x8d)
    1386                            .dwattr $C$DW$T$151, DW_AT_decl_column(0x03)
    1387                    
    1388                            .dwattr $C$DW$CU, DW_AT_language(DW_LANG_C)
    1389                    
    1390                    ;***************************************************************
    1391                    ;* DWARF CIE ENTRIES                                           *
    1392                    ;***************************************************************
    1393                    
    1394                    $C$DW$CIE       .dwcie 14
    1395                            .dwcfi  cfa_register, 13
    1396                            .dwcfi  cfa_offset, 0
    1397                            .dwcfi  same_value, 4
    1398                            .dwcfi  same_value, 5
    1399                            .dwcfi  same_value, 6
    1400                            .dwcfi  same_value, 7
    1401                            .dwcfi  same_value, 8
    1402                            .dwcfi  same_value, 9
    1403                            .dwcfi  same_value, 10
    1404                            .dwcfi  same_value, 11
    1405                            .dwcfi  same_value, 80
    1406                            .dwcfi  same_value, 81
    1407                            .dwcfi  same_value, 82
    1408                            .dwcfi  same_value, 83
    1409                            .dwcfi  same_value, 84
    1410                            .dwcfi  same_value, 85
    1411                            .dwcfi  same_value, 86
    1412                            .dwcfi  same_value, 87
    1413                            .dwcfi  same_value, 88
    1414                            .dwcfi  same_value, 89
    1415                            .dwcfi  same_value, 90
    1416                            .dwcfi  same_value, 91
    1417                            .dwcfi  same_value, 92
    1418                            .dwcfi  same_value, 93
    1419                            .dwcfi  same_value, 94
    1420                            .dwcfi  same_value, 95
    1421                            .dwendentry
    1422                    
    1423                    ;***************************************************************
    1424                    ;* DWARF REGISTER MAP                                          *
    1425                    ;***************************************************************
    1426                    
    1427                    $C$DW$22        .dwtag  DW_TAG_TI_assign_register
TI ARM Assembler PC v18.12.3 Wed Oct 30 15:48:47 2019

Copyright (c) 1996-2018 Texas Instruments Incorporated
main.asm                                                             PAGE   27

    1428                            .dwattr $C$DW$22, DW_AT_name("A1")
    1429                            .dwattr $C$DW$22, DW_AT_location[DW_OP_reg0]
    1430                    
    1431                    $C$DW$23        .dwtag  DW_TAG_TI_assign_register
    1432                            .dwattr $C$DW$23, DW_AT_name("A2")
    1433                            .dwattr $C$DW$23, DW_AT_location[DW_OP_reg1]
    1434                    
    1435                    $C$DW$24        .dwtag  DW_TAG_TI_assign_register
    1436                            .dwattr $C$DW$24, DW_AT_name("A3")
    1437                            .dwattr $C$DW$24, DW_AT_location[DW_OP_reg2]
    1438                    
    1439                    $C$DW$25        .dwtag  DW_TAG_TI_assign_register
    1440                            .dwattr $C$DW$25, DW_AT_name("A4")
    1441                            .dwattr $C$DW$25, DW_AT_location[DW_OP_reg3]
    1442                    
    1443                    $C$DW$26        .dwtag  DW_TAG_TI_assign_register
    1444                            .dwattr $C$DW$26, DW_AT_name("V1")
    1445                            .dwattr $C$DW$26, DW_AT_location[DW_OP_reg4]
    1446                    
    1447                    $C$DW$27        .dwtag  DW_TAG_TI_assign_register
    1448                            .dwattr $C$DW$27, DW_AT_name("V2")
    1449                            .dwattr $C$DW$27, DW_AT_location[DW_OP_reg5]
    1450                    
    1451                    $C$DW$28        .dwtag  DW_TAG_TI_assign_register
    1452                            .dwattr $C$DW$28, DW_AT_name("V3")
    1453                            .dwattr $C$DW$28, DW_AT_location[DW_OP_reg6]
    1454                    
    1455                    $C$DW$29        .dwtag  DW_TAG_TI_assign_register
    1456                            .dwattr $C$DW$29, DW_AT_name("V4")
    1457                            .dwattr $C$DW$29, DW_AT_location[DW_OP_reg7]
    1458                    
    1459                    $C$DW$30        .dwtag  DW_TAG_TI_assign_register
    1460                            .dwattr $C$DW$30, DW_AT_name("V5")
    1461                            .dwattr $C$DW$30, DW_AT_location[DW_OP_reg8]
    1462                    
    1463                    $C$DW$31        .dwtag  DW_TAG_TI_assign_register
    1464                            .dwattr $C$DW$31, DW_AT_name("V6")
    1465                            .dwattr $C$DW$31, DW_AT_location[DW_OP_reg9]
    1466                    
    1467                    $C$DW$32        .dwtag  DW_TAG_TI_assign_register
    1468                            .dwattr $C$DW$32, DW_AT_name("V7")
    1469                            .dwattr $C$DW$32, DW_AT_location[DW_OP_reg10]
    1470                    
    1471                    $C$DW$33        .dwtag  DW_TAG_TI_assign_register
    1472                            .dwattr $C$DW$33, DW_AT_name("V8")
    1473                            .dwattr $C$DW$33, DW_AT_location[DW_OP_reg11]
    1474                    
    1475                    $C$DW$34        .dwtag  DW_TAG_TI_assign_register
    1476                            .dwattr $C$DW$34, DW_AT_name("V9")
    1477                            .dwattr $C$DW$34, DW_AT_location[DW_OP_reg12]
    1478                    
    1479                    $C$DW$35        .dwtag  DW_TAG_TI_assign_register
    1480                            .dwattr $C$DW$35, DW_AT_name("SP")
    1481                            .dwattr $C$DW$35, DW_AT_location[DW_OP_reg13]
    1482                    
TI ARM Assembler PC v18.12.3 Wed Oct 30 15:48:47 2019

Copyright (c) 1996-2018 Texas Instruments Incorporated
main.asm                                                             PAGE   28

    1483                    $C$DW$36        .dwtag  DW_TAG_TI_assign_register
    1484                            .dwattr $C$DW$36, DW_AT_name("LR")
    1485                            .dwattr $C$DW$36, DW_AT_location[DW_OP_reg14]
    1486                    
    1487                    $C$DW$37        .dwtag  DW_TAG_TI_assign_register
    1488                            .dwattr $C$DW$37, DW_AT_name("PC")
    1489                            .dwattr $C$DW$37, DW_AT_location[DW_OP_reg15]
    1490                    
    1491                    $C$DW$38        .dwtag  DW_TAG_TI_assign_register
    1492                            .dwattr $C$DW$38, DW_AT_name("SR")
    1493                            .dwattr $C$DW$38, DW_AT_location[DW_OP_reg17]
    1494                    
    1495                    $C$DW$39        .dwtag  DW_TAG_TI_assign_register
    1496                            .dwattr $C$DW$39, DW_AT_name("AP")
    1497                            .dwattr $C$DW$39, DW_AT_location[DW_OP_reg7]
    1498                    
    1499                    $C$DW$40        .dwtag  DW_TAG_TI_assign_register
    1500                            .dwattr $C$DW$40, DW_AT_name("D0")
    1501                            .dwattr $C$DW$40, DW_AT_location[DW_OP_regx 0x40]
    1502                    
    1503                    $C$DW$41        .dwtag  DW_TAG_TI_assign_register
    1504                            .dwattr $C$DW$41, DW_AT_name("D0_hi")
    1505                            .dwattr $C$DW$41, DW_AT_location[DW_OP_regx 0x41]
    1506                    
    1507                    $C$DW$42        .dwtag  DW_TAG_TI_assign_register
    1508                            .dwattr $C$DW$42, DW_AT_name("D1")
    1509                            .dwattr $C$DW$42, DW_AT_location[DW_OP_regx 0x42]
    1510                    
    1511                    $C$DW$43        .dwtag  DW_TAG_TI_assign_register
    1512                            .dwattr $C$DW$43, DW_AT_name("D1_hi")
    1513                            .dwattr $C$DW$43, DW_AT_location[DW_OP_regx 0x43]
    1514                    
    1515                    $C$DW$44        .dwtag  DW_TAG_TI_assign_register
    1516                            .dwattr $C$DW$44, DW_AT_name("D2")
    1517                            .dwattr $C$DW$44, DW_AT_location[DW_OP_regx 0x44]
    1518                    
    1519                    $C$DW$45        .dwtag  DW_TAG_TI_assign_register
    1520                            .dwattr $C$DW$45, DW_AT_name("D2_hi")
    1521                            .dwattr $C$DW$45, DW_AT_location[DW_OP_regx 0x45]
    1522                    
    1523                    $C$DW$46        .dwtag  DW_TAG_TI_assign_register
    1524                            .dwattr $C$DW$46, DW_AT_name("D3")
    1525                            .dwattr $C$DW$46, DW_AT_location[DW_OP_regx 0x46]
    1526                    
    1527                    $C$DW$47        .dwtag  DW_TAG_TI_assign_register
    1528                            .dwattr $C$DW$47, DW_AT_name("D3_hi")
    1529                            .dwattr $C$DW$47, DW_AT_location[DW_OP_regx 0x47]
    1530                    
    1531                    $C$DW$48        .dwtag  DW_TAG_TI_assign_register
    1532                            .dwattr $C$DW$48, DW_AT_name("D4")
    1533                            .dwattr $C$DW$48, DW_AT_location[DW_OP_regx 0x48]
    1534                    
    1535                    $C$DW$49        .dwtag  DW_TAG_TI_assign_register
    1536                            .dwattr $C$DW$49, DW_AT_name("D4_hi")
    1537                            .dwattr $C$DW$49, DW_AT_location[DW_OP_regx 0x49]
TI ARM Assembler PC v18.12.3 Wed Oct 30 15:48:47 2019

Copyright (c) 1996-2018 Texas Instruments Incorporated
main.asm                                                             PAGE   29

    1538                    
    1539                    $C$DW$50        .dwtag  DW_TAG_TI_assign_register
    1540                            .dwattr $C$DW$50, DW_AT_name("D5")
    1541                            .dwattr $C$DW$50, DW_AT_location[DW_OP_regx 0x4a]
    1542                    
    1543                    $C$DW$51        .dwtag  DW_TAG_TI_assign_register
    1544                            .dwattr $C$DW$51, DW_AT_name("D5_hi")
    1545                            .dwattr $C$DW$51, DW_AT_location[DW_OP_regx 0x4b]
    1546                    
    1547                    $C$DW$52        .dwtag  DW_TAG_TI_assign_register
    1548                            .dwattr $C$DW$52, DW_AT_name("D6")
    1549                            .dwattr $C$DW$52, DW_AT_location[DW_OP_regx 0x4c]
    1550                    
    1551                    $C$DW$53        .dwtag  DW_TAG_TI_assign_register
    1552                            .dwattr $C$DW$53, DW_AT_name("D6_hi")
    1553                            .dwattr $C$DW$53, DW_AT_location[DW_OP_regx 0x4d]
    1554                    
    1555                    $C$DW$54        .dwtag  DW_TAG_TI_assign_register
    1556                            .dwattr $C$DW$54, DW_AT_name("D7")
    1557                            .dwattr $C$DW$54, DW_AT_location[DW_OP_regx 0x4e]
    1558                    
    1559                    $C$DW$55        .dwtag  DW_TAG_TI_assign_register
    1560                            .dwattr $C$DW$55, DW_AT_name("D7_hi")
    1561                            .dwattr $C$DW$55, DW_AT_location[DW_OP_regx 0x4f]
    1562                    
    1563                    $C$DW$56        .dwtag  DW_TAG_TI_assign_register
    1564                            .dwattr $C$DW$56, DW_AT_name("D8")
    1565                            .dwattr $C$DW$56, DW_AT_location[DW_OP_regx 0x50]
    1566                    
    1567                    $C$DW$57        .dwtag  DW_TAG_TI_assign_register
    1568                            .dwattr $C$DW$57, DW_AT_name("D8_hi")
    1569                            .dwattr $C$DW$57, DW_AT_location[DW_OP_regx 0x51]
    1570                    
    1571                    $C$DW$58        .dwtag  DW_TAG_TI_assign_register
    1572                            .dwattr $C$DW$58, DW_AT_name("D9")
    1573                            .dwattr $C$DW$58, DW_AT_location[DW_OP_regx 0x52]
    1574                    
    1575                    $C$DW$59        .dwtag  DW_TAG_TI_assign_register
    1576                            .dwattr $C$DW$59, DW_AT_name("D9_hi")
    1577                            .dwattr $C$DW$59, DW_AT_location[DW_OP_regx 0x53]
    1578                    
    1579                    $C$DW$60        .dwtag  DW_TAG_TI_assign_register
    1580                            .dwattr $C$DW$60, DW_AT_name("D10")
    1581                            .dwattr $C$DW$60, DW_AT_location[DW_OP_regx 0x54]
    1582                    
    1583                    $C$DW$61        .dwtag  DW_TAG_TI_assign_register
    1584                            .dwattr $C$DW$61, DW_AT_name("D10_hi")
    1585                            .dwattr $C$DW$61, DW_AT_location[DW_OP_regx 0x55]
    1586                    
    1587                    $C$DW$62        .dwtag  DW_TAG_TI_assign_register
    1588                            .dwattr $C$DW$62, DW_AT_name("D11")
    1589                            .dwattr $C$DW$62, DW_AT_location[DW_OP_regx 0x56]
    1590                    
    1591                    $C$DW$63        .dwtag  DW_TAG_TI_assign_register
    1592                            .dwattr $C$DW$63, DW_AT_name("D11_hi")
TI ARM Assembler PC v18.12.3 Wed Oct 30 15:48:47 2019

Copyright (c) 1996-2018 Texas Instruments Incorporated
main.asm                                                             PAGE   30

    1593                            .dwattr $C$DW$63, DW_AT_location[DW_OP_regx 0x57]
    1594                    
    1595                    $C$DW$64        .dwtag  DW_TAG_TI_assign_register
    1596                            .dwattr $C$DW$64, DW_AT_name("D12")
    1597                            .dwattr $C$DW$64, DW_AT_location[DW_OP_regx 0x58]
    1598                    
    1599                    $C$DW$65        .dwtag  DW_TAG_TI_assign_register
    1600                            .dwattr $C$DW$65, DW_AT_name("D12_hi")
    1601                            .dwattr $C$DW$65, DW_AT_location[DW_OP_regx 0x59]
    1602                    
    1603                    $C$DW$66        .dwtag  DW_TAG_TI_assign_register
    1604                            .dwattr $C$DW$66, DW_AT_name("D13")
    1605                            .dwattr $C$DW$66, DW_AT_location[DW_OP_regx 0x5a]
    1606                    
    1607                    $C$DW$67        .dwtag  DW_TAG_TI_assign_register
    1608                            .dwattr $C$DW$67, DW_AT_name("D13_hi")
    1609                            .dwattr $C$DW$67, DW_AT_location[DW_OP_regx 0x5b]
    1610                    
    1611                    $C$DW$68        .dwtag  DW_TAG_TI_assign_register
    1612                            .dwattr $C$DW$68, DW_AT_name("D14")
    1613                            .dwattr $C$DW$68, DW_AT_location[DW_OP_regx 0x5c]
    1614                    
    1615                    $C$DW$69        .dwtag  DW_TAG_TI_assign_register
    1616                            .dwattr $C$DW$69, DW_AT_name("D14_hi")
    1617                            .dwattr $C$DW$69, DW_AT_location[DW_OP_regx 0x5d]
    1618                    
    1619                    $C$DW$70        .dwtag  DW_TAG_TI_assign_register
    1620                            .dwattr $C$DW$70, DW_AT_name("D15")
    1621                            .dwattr $C$DW$70, DW_AT_location[DW_OP_regx 0x5e]
    1622                    
    1623                    $C$DW$71        .dwtag  DW_TAG_TI_assign_register
    1624                            .dwattr $C$DW$71, DW_AT_name("D15_hi")
    1625                            .dwattr $C$DW$71, DW_AT_location[DW_OP_regx 0x5f]
    1626                    
    1627                    $C$DW$72        .dwtag  DW_TAG_TI_assign_register
    1628                            .dwattr $C$DW$72, DW_AT_name("FPEXC")
    1629                            .dwattr $C$DW$72, DW_AT_location[DW_OP_reg18]
    1630                    
    1631                    $C$DW$73        .dwtag  DW_TAG_TI_assign_register
    1632                            .dwattr $C$DW$73, DW_AT_name("FPSCR")
    1633                            .dwattr $C$DW$73, DW_AT_location[DW_OP_reg19]
    1634                    
    1635                            .dwendtag $C$DW$CU
    1636                    

--------------------------
Thumb2 Statistics
--------------------------
Number of Thumb2 ins converted to Thumb = 0 (0%)
Number of Thumb ins in input = 33 (86%)
Number of Thumb2 ins encoded as Thumb2 = 5 (100%)
Number of Thumb2 ins converted to 2 OPND Thumb = 0


No Assembly Errors, No Assembly Warnings
